(lp0
(ireviewModules
Review
p1
(dp2
S'features'
p3
(lp4
(lp5
F2.8732159205713064
aI0
aI0
aI0
aI0
aI0
aI0
aI0
aF2.873571112062146
aI0
aF21.235602706928788
aI0
aI0
aI0
aI0
aF57.7172171460213
aI0
aI0
aF1.3201927884341202
aF1.320192848786957
aF1.3201927884341202
aF195.93380160336935
aF1.3201937416406635
aF1.3201927884341202
aF1.3201927884341202
aF1.3201927884341202
aF1.3201927884341202
aF1.3201927884341202
aF1.320192874035466
aF1.3201927884341202
aF1.3201927884341202
aF1.3201927884341202
aF1.3201927884341202
aF1.3201927884341202
aF1.320192861217998
aF1.3201928343917197
aF0.9907440279413104
aI18
aI18
aa(lp6
F1.9339387813558906
aI0
aF1.9342549008565908
aI0
aI0
aI0
aI0
aI0
aF3.293453622358264
aI0
aF6.220185932809548
aI0
aF2.6910538392003076
aF2.293526612676555
aI0
aF13.954300406375168
aI0
aF2.3583188810229467
aF5.806937239971362
aI0
aI0
aI0
aI0
aI0
aI0
aI0
aI0
aI0
aF162.8449511450685
aI0
aI0
aI0
aI0
aF5.808133408943103
aI0
aI0
aF0.5873407816595124
aI18
aI18
aa(lp7
I0
aI0
aF2.021224837765116
aF2.236975459504815
aI0
aI0
aI0
aI0
aF3.6192119555260835
aI0
aF2.021224894038166
aI0
aF2.695336840714971
aF2.200152228054757
aI0
aF32.57726101804755
aI0
aF2.380181940043168
aF2.873215908280095
aI0
aI0
aI0
aI0
aI0
aI0
aI0
aF2.873571112062125
aI0
aF21.2356028062041
aI0
aI0
aI0
aI0
aF57.717217169698586
aI0
aI0
aF0.05637310219601721
aI18
aI18
aa(lp8
I0
aI0
aF2.252331253145862
aF2.3033560948328895
aI0
aI0
aI0
aI0
aF2.2523312995675338
aI0
aF2.2523313183377147
aI0
aF2.2523313002274197
aF2.2523313020950297
aI0
aF47.77428227499318
aI0
aF2.252331290780186
aF1.9339386838865182
aI0
aF1.9342549008550696
aI0
aI0
aI0
aI0
aI0
aF3.2934522900774876
aI0
aF6.220161325379379
aI0
aF2.6913125906436055
aF2.2935295340826922
aI0
aF13.951432481422398
aI0
aF2.3585842850713257
aF0.10356356455089677
aI18
aI18
aa(lp9
I0
aI0
aF2.873571136871388
aF3.3747313667687355
aI0
aI0
aI0
aI0
aI0
aI0
aI0
aI0
aF7.811176204268171
aI0
aI0
aF46.054216220900734
aF3.066483967348307
aI0
aI0
aI0
aF2.0212248377598807
aF2.2371863505222978
aI0
aI0
aI0
aI0
aF3.619212859189811
aI0
aF2.0212248940344075
aI0
aF2.69584808273741
aF2.2001515546341963
aI0
aF32.56132466768322
aI0
aF2.3806709588469053
aF0.018286887116158446
aI18
aI18
aa(lp10
I0
aF7.348194281421115
aF3.2667574618558874
aI0
aF4.918031663651783
aI0
aI0
aI0
aI0
aI0
aI0
aI0
aF8.868801633114092
aF2.7248880844426293
aI0
aF2.509401355792461
aF1.9883793156967364
aI0
aI0
aI0
aF2.252331253145832
aF2.3033569537267073
aI0
aI0
aI0
aI0
aF2.252331299567529
aI0
aF2.2523313183376863
aI0
aF2.2523313002274112
aF2.2523313020950226
aI0
aF47.77426446053961
aI0
aF2.252331290780175
aF0.7659402598617804
aI18
aI18
aa(lp11
I0
aF4.211661856913445
aF8.526415960471203
aI0
aF18.542575836064945
aI0
aI0
aI0
aI0
aI0
aI0
aI0
aF7.667855946783621
aF2.665483691284139
aI0
aI0
aI0
aI0
aI0
aI0
aF2.8735711368709387
aF3.375610437627971
aI0
aI0
aI0
aI0
aI0
aI0
aI0
aI0
aF7.8111762042650215
aI0
aI0
aF46.06728030651259
aF3.0648160099099235
aI0
aF0.9197678212325864
aI18
aI18
aa(lp12
I0
aF4.884731467018134
aF10.560859938691236
aF5.985723150676059
aF22.41152089820823
aI0
aI0
aI0
aI0
aI0
aI0
aI0
aF2.0266612443222787
aI0
aI0
aI0
aI0
aI0
aI0
aF6.766089791407074
aF3.127040459101791
aI0
aI0
aI0
aI0
aI0
aF2.8009371488481176
aI0
aI0
aI0
aF8.141378515767007
aF3.0818897834039545
aI0
aF2.44494977337883
aF3.9157251170589342
aI0
aF0.7496035133152321
aI18
aI18
aa(lp13
I0
aI0
aF124.4839860005794
aF3.9799356399022052
aF22.200453904169496
aI0
aI0
aI0
aI0
aI0
aI0
aI0
aI0
aI0
aI0
aI0
aI0
aI0
aI0
aF4.212081728309316
aF8.5164234467636
aI0
aF18.557641819389502
aI0
aI0
aI0
aI0
aI0
aI0
aI0
aF7.667855946787022
aF2.6661788752187516
aI0
aI0
aI0
aI0
aF0.4798904085320497
aI18
aI18
aa(lp14
I0
aI0
aF159.21880633935308
aF4.828640499940061
aF12.451264344029308
aI0
aI0
aI0
aI0
aI0
aI0
aI0
aI0
aI0
aI0
aI0
aI0
aI0
aI0
aF4.8850076163962495
aF10.56403424255718
aF5.9924551407415585
aF22.378558699998237
aI0
aI0
aI0
aI0
aI0
aI0
aI0
aF2.0266425008398143
aI0
aI0
aI0
aI0
aI0
aF0.5211719860999378
aI18
aI18
aa(lp15
I0
aI0
aF77.30391267259827
aI0
aI0
aI0
aI0
aI0
aI0
aI0
aI0
aI0
aF4.949752368061758
aI0
aI0
aI0
aF20.31279724598382
aI0
aI0
aI0
aF124.4557942562067
aF3.978303827885075
aF22.214590950812845
aI0
aI0
aI0
aI0
aI0
aI0
aI0
aI0
aI0
aI0
aI0
aI0
aI0
aF0.050171110022682375
aI18
aI18
aa(lp16
F1.117519068741864
aF1.117519068741864
aF1.1175191057922182
aF1.1175190959837156
aF1.1175190735331397
aF1.1175190687418641
aF1.117519068741864
aF1.117519068741864
aF1.1175190687418637
aF1.1175190687418652
aF1.1175190687418644
aF1.1175190687418648
aF8.257410908971194
aF1.117519068741864
aF1.1175190687418641
aF1.1175190697526276
aF450.8393506955996
aF1.1175190701010638
aI0
aI0
aF159.2468219356413
aF4.832298449589192
aF12.439650324766623
aI0
aI0
aI0
aI0
aI0
aI0
aI0
aI0
aI0
aI0
aI0
aI0
aI0
aF0.9972625926492575
aI18
aI18
aa(lp17
F1.117519068741864
aF1.117519068741864
aF1.117519068741864
aF450.83937734712913
aF1.1175190696015858
aF1.1175190687418641
aF1.117519068741864
aF1.117519068741864
aF1.1175190687418637
aF1.1175190687418652
aF1.1175190687418644
aF1.1175190687418648
aF8.25741073222343
aF1.117519068741864
aF1.1175190687418641
aF1.1175190713876217
aF1.1175190940568498
aF1.1175190692325148
aI0
aI0
aF81.21997727973132
aF20.551484343731683
aI0
aI0
aI0
aI0
aI0
aI0
aI0
aI0
aF4.656382310549096
aI0
aI0
aI0
aI0
aI0
aF0.7517124432507584
aI18
aI18
aa(lp18
I0
aI0
aI0
aF801.7666187368582
aI0
aI0
aI0
aI0
aI0
aI0
aI0
aI0
aI0
aI0
aI0
aI0
aF6.244498944261946
aI0
aF1.117519068741864
aF1.117519068741864
aF1.1175191088375276
aF1.1175190957023342
aF1.1175190735335336
aF1.1175190687418641
aF1.117519068741864
aF1.117519068741864
aF1.117519068741864
aF1.1175190687418652
aF1.1175190687418644
aF1.117519068741865
aF8.257410908986339
aF1.117519068741864
aF1.1175190687418641
aF1.1175190697527106
aF450.839349579488
aF1.1175190701011755
aF0.9897353603366815
aI18
aI18
aa(lp19
I0
aI0
aI0
aF801.8229289894689
aI0
aI0
aI0
aI0
aI0
aI0
aI0
aI0
aI0
aI0
aI0
aI0
aF6.2440604066593215
aI0
aF1.117519068741864
aF1.117519068741864
aF1.1175190687418637
aF450.8393744516846
aF1.1175190696018436
aF1.1175190687418641
aF1.1175190687418637
aF1.117519068741864
aF1.1175190687418637
aF1.1175190687418652
aF1.1175190687418644
aF1.1175190687418648
aF8.257410732331062
aF1.117519068741864
aF1.1175190687418641
aF1.117519071388415
aF1.1175191012181729
aF1.117519069232662
aF0.0002278296751685449
aI18
aI18
aa(lp20
F3.7413430141178914
aI0
aI0
aF41.588841548169256
aI0
aI0
aI0
aI0
aI0
aI0
aI0
aF3.7413392873839184
aI0
aI0
aI0
aI0
aF14.311416104513299
aI0
aI0
aI0
aI0
aF802.149814121817
aI0
aI0
aI0
aI0
aI0
aI0
aI0
aI0
aI0
aI0
aI0
aI0
aF6.2415158751486155
aI0
aF0.05870364056489763
aI18
aI18
aa(lp21
I0
aI0
aI0
aI0
aF2.3474228519378935
aI0
aI0
aI0
aF6.273352090791293
aI0
aF2.0212254110972845
aF2.0212232169567517
aI0
aI0
aI0
aF16.346317701025136
aF4.026463122261877
aF3.701232207847729
aI0
aI0
aI0
aF801.7668375724529
aI0
aI0
aI0
aI0
aI0
aI0
aI0
aI0
aI0
aI0
aI0
aI0
aF6.244497239876466
aI0
aF0.998324157938826
aI18
aI18
aa(lp22
I0
aI0
aI0
aI0
aF4.1426434260566465
aI0
aI0
aI0
aF9.63296695594246
aI0
aF1.7975416307200884
aF1.7975397641562167
aI0
aI0
aI0
aF6.555789900293746
aF6.691061047207071
aF2.7732182099884795
aF3.741343014117495
aI0
aI0
aF41.594261842565246
aI0
aI0
aI0
aI0
aI0
aI0
aI0
aF3.7413392872667353
aI0
aI0
aI0
aI0
aF14.309551057183116
aI0
aF0.8410948678187046
aI18
aI18
aa(lp23
I0
aI0
aI0
aI0
aF9.730062521772808
aI0
aI0
aI0
aF18.853968216470793
aI0
aF2.021224882660446
aI0
aI0
aI0
aI0
aF4.3928975601463796
aF8.355182531255897
aI0
aI0
aI0
aI0
aI0
aF2.3473939068903444
aI0
aI0
aI0
aF6.274633093091907
aI0
aF2.021225411095757
aF2.0212232169199327
aI0
aI0
aI0
aF16.341301372895188
aF4.026891861646758
aF3.701264055745082
aF0.4252090653607735
aI18
aI18
aa(lp24
I0
aI0
aI0
aI0
aI0
aI0
aI0
aI0
aF5.808133480521084
aI0
aI0
aI0
aI0
aF29.06628303215468
aI0
aI0
aF5.949413330432501
aF5.998880978495727
aI0
aI0
aI0
aI0
aF4.140455267851665
aI0
aI0
aI0
aF9.631463169299222
aI0
aF1.7975416307198173
aF1.79753976406618
aI0
aI0
aI0
aF6.558605662829349
aF6.690993824481501
aF2.77395347283638
aF0.749472657307839
aI18
aI18
aa(lp25
I0
aI0
aI0
aI0
aI0
aI0
aI0
aI0
aI0
aI0
aF3.74134225736395
aF3.7413423054095083
aI0
aF3.4220830288232005
aI0
aI0
aF12.243977871181084
aF15.22668721520214
aI0
aI0
aI0
aI0
aF9.727538835546747
aI0
aI0
aI0
aF18.82398902161339
aI0
aF2.0212248826628283
aI0
aI0
aI0
aI0
aF4.402055390290221
aF8.35324621181529
aI0
aF0.7702322401603324
aI18
aI18
aa(lp26
I0
aI0
aF1.5966621862593267
aF1.9959857950365418
aF7.067765884607022
aF1.552420479097278
aI0
aI0
aI0
aF1.5524446016868108
aF2.6285996213366976
aF1.5524197510435422
aF3.4933080468534845
aI0
aI0
aI0
aF7.345887660745747
aF3.2197861303691884
aI0
aI0
aI0
aI0
aI0
aI0
aI0
aI0
aF5.808133480520381
aI0
aI0
aI0
aI0
aF29.059589006840444
aI0
aI0
aF5.949962888756357
aF5.99970852212273
aF0.8314009376830243
aI18
aI18
aa(lp27
I0
aI0
aF1.6209669026480749
aF2.716322740363957
aF7.038686737093595
aF1.552420457723874
aF1.8715307470814218
aI0
aI0
aF1.552443809559264
aF2.6432813840223295
aF1.5524197583596733
aF2.4085848671745733
aI0
aI0
aI0
aF7.699078394724452
aF1.760963688373463
aI0
aI0
aI0
aI0
aI0
aI0
aI0
aI0
aI0
aI0
aF3.7413422573641695
aF3.7413423053968327
aI0
aF3.408245300077163
aI0
aI0
aF12.277838981860068
aF15.246344440186377
aF0.44724704398256365
aI18
aI18
aa(lp28
I0
aI0
aF2.6849008499173403
aF3.7771256361386003
aF18.20932823046464
aF1.5257775654546148
aF2.5573806651986595
aI0
aI0
aF1.526767647238934
aF1.5859421714289197
aF1.5263974797300848
aF2.2766760816732807
aI0
aI0
aI0
aF3.041147694105735
aI0
aI0
aI0
aF1.5966660706611213
aF1.9964901629707652
aF7.072197586836819
aF1.5524204789179032
aI0
aI0
aI0
aF1.5524445958637991
aF2.6285149117989044
aF1.5524197510381024
aF3.4934331273319112
aI0
aI0
aI0
aF7.341391737988173
aF3.2189063464348635
aF0.23320224787043953
aI18
aI18
aa(lp29
I0
aF1.89361069643713
aF3.419131790646085
aF1.8979788603327745
aF32.73759843352491
aI0
aF7.690232730435529
aI0
aI0
aF1.7451625181897554
aI0
aF2.9575994765637947
aI0
aI0
aI0
aI0
aI0
aI0
aI0
aI0
aF1.62096283382433
aF2.718505529966987
aF7.047430464254856
aF1.5524204572618685
aF1.870641409679541
aI0
aI0
aF1.552443794265958
aF2.643072115515302
aF1.5524197583702766
aF2.4086405772453054
aI0
aI0
aI0
aF7.690527848716408
aF1.7602600643474466
aF0.35988279159959113
aI18
aI18
aa(lp30
I0
aF1.8579347921841685
aF6.18052213233518
aF1.7672927687664055
aF45.955375738932176
aI0
aI0
aI0
aI0
aF1.744318748919247
aI0
aF5.006508530409754
aI0
aI0
aI0
aI0
aF1.9606414428877115
aI0
aI0
aI0
aF2.6850203048447594
aF3.777658760219591
aF18.19332190356969
aF1.525777503798735
aF2.556748378809545
aI0
aI0
aF1.526767451105235
aF1.5859669743475417
aF1.5263973272690035
aF2.2766759219558894
aI0
aI0
aI0
aF3.043964336706794
aI0
aF0.04357246079170396
aI18
aI18
aa(lp31
I0
aF1.8097250414511923
aF7.612692370474632
aF1.777134558023418
aF49.84639952821163
aI0
aI0
aF2.54465616941355
aI0
aF1.7429092916529276
aI0
aF2.950194003896284
aI0
aI0
aI0
aI0
aI0
aI0
aI0
aF1.893573421946059
aF3.4196255638362683
aF1.8984449992307437
aF32.772843307379055
aI0
aF7.679130497254228
aI0
aI0
aF1.7451615836701115
aI0
aF2.9575964102085393
aI0
aI0
aI0
aI0
aI0
aI0
aF0.029067507407088966
aI18
aI18
aa(lp32
I0
aI0
aF23.147307357721246
aF3.595735793557134
aF7.405994478371043
aI0
aI0
aF4.956873298259883
aI0
aI0
aI0
aF3.231152383434323
aI0
aI0
aI0
aI0
aI0
aI0
aI0
aF1.8560736956345214
aF6.031212860510909
aF1.7633655952160654
aF43.13120223325821
aI0
aF2.147547412788194
aI0
aI0
aF1.7443400889365988
aI0
aF5.006701790858663
aI0
aI0
aI0
aI0
aI0
aI0
aF0.5669006866203777
aI18
aI18
aa(lp33
I0
aI0
aF2.7627032754319534
aF2.570413769803601
aF3.8228135636103184
aI0
aI0
aF45.58236192331874
aF9.75094339557063
aI0
aI0
aI0
aI0
aI0
aI0
aI0
aI0
aI0
aI0
aF1.809728458182514
aF7.613073094645097
aF1.7771367433733678
aF49.8481916031827
aI0
aI0
aF2.5444295028095154
aI0
aF1.742909291653538
aI0
aF2.95019400390494
aI0
aI0
aI0
aI0
aI0
aI0
aF0.8603003804382389
aI18
aI18
aa(lp34
I0
aF2.41346905188543
aI0
aI0
aI0
aI0
aI0
aF9.95381797855269
aF41.63465509253104
aI0
aI0
aI0
aF5.005634909294856
aI0
aI0
aI0
aI0
aF2.4100069346468254
aI0
aI0
aF23.14773367416762
aF3.5957662585730144
aF7.405913867895278
aI0
aI0
aF4.956793962542673
aI0
aI0
aI0
aF3.231152383424618
aI0
aI0
aI0
aI0
aI0
aI0
aF0.9548409138346361
aI18
aI18
aa(lp35
I0
aF1.974174680714085
aI0
aI0
aI0
aI0
aI0
aF5.648966527107889
aF207.2080203243252
aI0
aI0
aI0
aF2.7949896460252335
aI0
aI0
aI0
aI0
aF2.1715396213768035
aI0
aI0
aF2.7619699816428813
aF2.5703814434191647
aF3.821364652020946
aI0
aI0
aF45.65136904418682
aF9.742603782369915
aI0
aI0
aI0
aI0
aI0
aI0
aI0
aI0
aI0
aF0.7662987345108729
aI18
aI18
aa(lp36
I0
aI0
aF2.148734201144729
aI0
aF3.982137425817324
aI0
aI0
aI0
aF22.22824365397533
aI0
aF1.7429090268490046
aI0
aF1.7429089070460233
aI0
aI0
aI0
aF4.1129497020865395
aF6.7197413485156074
aI0
aF2.4134708931838444
aI0
aI0
aI0
aI0
aI0
aF9.969688112448965
aF41.56826455096034
aI0
aI0
aI0
aF5.00564492603964
aI0
aI0
aI0
aI0
aF2.410006934648984
aF0.08951592727205437
aI18
aI18
aa(lp37
I0
aI0
aF4.367571359017311
aI0
aI0
aI0
aI0
aI0
aF23.0194789110216
aI0
aF2.2523313049462104
aI0
aI0
aI0
aI0
aI0
aF6.203074583864166
aF8.996950353642477
aI0
aF1.9741911444318785
aI0
aI0
aI0
aI0
aI0
aF5.6517976467748845
aF207.0860129708094
aI0
aI0
aI0
aF2.79512036175089
aI0
aI0
aI0
aI0
aF2.171610922193472
aF0.10983920589819529
aI18
aI18
aa(lp38
I0
aI0
aF8.533573571143176
aI0
aI0
aI0
aI0
aI0
aF3.2311544677218382
aI0
aF3.231154543179995
aI0
aI0
aI0
aI0
aI0
aF11.289724736883974
aF9.815380761252445
aI0
aI0
aF2.148899810637734
aI0
aF3.9809368586825067
aI0
aI0
aI0
aF22.229373036785287
aI0
aF1.742909026847413
aI0
aF1.742908907044071
aI0
aI0
aI0
aF4.113473053411105
aF6.720053283900859
aF0.5159931070005601
aI18
aI18
aasS'review'
p39
S'Current laptop is the Dell XPS M1330, a 13.3 inch laptop which seemed very cool to me in terms of build and weight (about four pounds). But even that started to feel big and heavy so when this one came out-- at this price!!!-- I pre-purchased.*|*|* I have been tracking discussions here and on the notebook review forums, and have some immediate answers to various concerns:1. it\'s 3 pounds six ounces with the battery. Feels like carrying a book.*|*|* 2. the wireless is intel 1000 bgn and has held steady and been very fast since I first got the computer.*|*|* 3. there\'s only one memory stick (2G) so you can easily pop in a second (which I did, before I even booted up the computer, for a grand total of $35.00) to bring the total memory to 4G.*|*|* 4. The keyboard is full sized, or, if it\'s smaller, the difference is so minimal I can\'t tell. It does seem to me that some of the edge keys (delete, tab, function keys) are smaller.*|*|* 5. It\'s crazy fast. My Windows Experence Index is:Processor 4.1Ram (with 4G) 4.8Graphics 3.5 (I\'m not bothered, but I\'m not a gamer)Gaming Graphics 3.3HDD 5.8*|*|* 6. Touchpad does pinch zoom and is very responsive.*|*|* Have not installed all my software yet, but three hours of removing bloatware with the computer set on "high performance" and using WiFi leaves me with close to three hours of battery left.It\'s incredibly cool, meaning, in this case, temperature.In sum: I am in awe.*|*|* UDPATE: I have been using the laptop continually since my purchase. It continues to impress me with build quality and performance. I have been upgrading all our home computers to Windows 7, and I notice that the Intel card on this laptop finds the network more quickly than the gigabit ethernet card on my quad core desktop, and transfer speeds are as good as or better than the other wireless N cards in the house. So I think the people who have had trouble with the card may have gotten a bad card.*|*|* (Small comfort, I know...)I had some minor issues with the touchpad, which felt sticky and slow to me. I finally spent some time in the synaptics settings panel, changing the sensitivity and speed of the pointer, and now find it works very well for me. So if the touchpad is bothering you, give that a try.*|*|* I really like the keyboard-- my Dell xps m1330 often inserts an extra letter if I hit a key too hard, or, at the other end of the spectrum, misses a key. Never happens with this one.*|*|* More than one person, on seeing the computer, has thought I finally upgraded to Mac.*|*|* Note: Did a clean install of windows 7 from a usb drive, no problems, to get rid of bloatware. All updated drivers available for download on the Asus website. There\'s a very nice summary of all Asus installed software at NotebookReview dot com forums-- search "bloatware" in the Asus section.'
p40
sS'realTags'
p41
(lp42
I0
aI0
aI0
aI1
aI0
aI0
aI1
aI1
aI0
aI1
aI0
aI1
aI0
aI0
aI0
aI0
aI0
aI1
aI1
aI0
aI0
aI1
aI0
aI0
aI0
aI1
aI0
aI0
aI1
aI0
aI1
aI1
aI0
aI0
asS'predictedTags'
p43
cnumpy.core.multiarray
_reconstruct
p44
(cnumpy
ndarray
p45
(I0
tp46
S'b'
p47
tp48
Rp49
(I1
(I34
tp50
cnumpy
dtype
p51
(S'i8'
p52
I0
I1
tp53
Rp54
(I3
S'<'
p55
NNNI-1
I-1
I0
tp56
bI00
S'\x00\x00\x00\x00\x00\x00\x00\x00\x00\x00\x00\x00\x00\x00\x00\x00\x00\x00\x00\x00\x00\x00\x00\x00\x00\x00\x00\x00\x00\x00\x00\x00\x00\x00\x00\x00\x00\x00\x00\x00\x00\x00\x00\x00\x00\x00\x00\x00\x00\x00\x00\x00\x00\x00\x00\x00\x00\x00\x00\x00\x00\x00\x00\x00\x00\x00\x00\x00\x00\x00\x00\x00\x00\x00\x00\x00\x00\x00\x00\x00\x00\x00\x00\x00\x00\x00\x00\x00\x00\x00\x00\x00\x00\x00\x00\x00\x00\x00\x00\x00\x00\x00\x00\x00\x00\x00\x00\x00\x00\x00\x00\x00\x00\x00\x00\x00\x00\x00\x00\x00\x00\x00\x00\x00\x00\x00\x00\x00\x00\x00\x00\x00\x00\x00\x00\x00\x00\x00\x00\x00\x00\x00\x00\x00\x00\x00\x00\x00\x00\x00\x00\x00\x00\x00\x00\x00\x00\x00\x00\x00\x00\x00\x00\x00\x00\x00\x00\x00\x00\x00\x00\x00\x00\x00\x00\x00\x00\x00\x00\x00\x00\x00\x00\x00\x00\x00\x00\x00\x00\x00\x00\x00\x00\x00\x00\x00\x00\x00\x00\x00\x00\x00\x00\x00\x00\x00\x00\x00\x00\x00\x00\x00\x00\x00\x00\x00\x00\x00\x00\x00\x00\x00\x00\x00\x00\x00\x00\x00\x00\x00\x00\x00\x00\x00\x00\x00\x00\x00\x00\x00\x00\x00\x00\x00\x00\x00\x00\x00\x00\x00\x00\x00\x00\x00\x00\x00\x00\x00\x00\x00\x00\x00\x00\x00\x00\x00\x00\x00\x00\x00\x00\x00'
p57
tp58
bsS'predictedLDASentenceTags'
p59
(lp60
(lp61
I3
aa(lp62
I10
aa(lp63
I15
aa(lp64
I10
aa(lp65
I15
aa(lp66
I15
aa(lp67
I12
aa(lp68
I8
aa(lp69
I2
aa(lp70
I4
aa(lp71
I2
aa(lp72
I2
aa(lp73
I16
aa(lp74
I0
aI1
aI2
aI3
aI4
aI5
aI6
aI7
aI8
aI9
aI10
aI11
aI12
aI13
aI14
aI15
aI16
aI17
aa(lp75
I3
aa(lp76
I3
aa(lp77
I0
aI1
aI2
aI3
aI4
aI5
aI6
aI7
aI8
aI9
aI10
aI11
aI12
aI13
aI14
aI15
aI16
aI17
aa(lp78
I0
aa(lp79
I8
aa(lp80
I8
aa(lp81
I0
aI1
aI2
aI3
aI4
aI5
aI6
aI7
aI8
aI9
aI10
aI11
aI12
aI13
aI14
aI15
aI16
aI17
aa(lp82
I17
aa(lp83
I16
aa(lp84
I4
aa(lp85
I6
aa(lp86
I2
aa(lp87
I4
aa(lp88
I2
aa(lp89
I4
aa(lp90
I0
aI1
aI2
aI3
aI4
aI5
aI6
aI7
aI8
aI9
aI10
aI11
aI12
aI13
aI14
aI15
aI16
aI17
aa(lp91
I8
aa(lp92
I8
aa(lp93
I8
aa(lp94
I16
aasS'sentences'
p95
(lp96
S'Current laptop is the Dell XPS M1330 a 13'
p97
aS'3 inch laptop which seemed very cool to me in terms of build and weight about four pounds '
p98
aS'But even that started to feel big and heavy so when this one came out at this price I pre purchased'
p99
aS'I have been tracking discussions here and on the notebook review forums and have some immediate answers to various concerns 1'
p100
aS"it's 3 pounds six ounces with the battery"
p101
aS'Feels like carrying a book'
p102
aS' the wireless is intel 1000 bgn and has held steady and been very fast since I first got the computer'
p103
aS" there's only one memory stick 2G so you can easily pop in a second which I did before I even booted up the computer for a grand total of 35"
p104
aS'00 to bring the total memory to 4G'
p105
aS"The keyboard is full sized or if it's smaller the difference is so minimal I can't tell"
p106
aS'It does seem to me that some of the edge keys delete tab function keys are smaller'
p107
aS"It's crazy fast"
p108
aS'My Windows Experence Index is Processor 4'
p109
aS'1Ram with 4G 4'
p110
aS'8Graphics 3'
p111
aS"5 I'm not bothered but I'm not a gamer Gaming Graphics 3"
p112
aS'3HDD 5.8'
p113
aS'Touchpad does pinch zoom and is very responsive'
p114
aS'Have not installed all my software yet but three hours of removing bloatware with the computer set on high performance and using WiFi leaves me with close to three hours of battery left'
p115
aS"It's incredibly cool meaning in this case temperature"
p116
aS'In sum I am in awe'
p117
aS'UDPATE I have been using the laptop continually since my purchase'
p118
aS'It continues to impress me with build quality and performance'
p119
aS'I have been upgrading all our home computers to Windows 7 and I notice that the Intel card on this laptop finds the network more quickly than the gigabit ethernet card on my quad core desktop and transfer speeds are as good as or better than the other wireless N cards in the house'
p120
aS'So I think the people who have had trouble with the card may have gotten a bad card'
p121
aS'Small comfort I know I had some minor issues with the touchpad which felt sticky and slow to me'
p122
aS'I finally spent some time in the synaptics settings panel changing the sensitivity and speed of the pointer and now find it works very well for me'
p123
aS'So if the touchpad is bothering you give that a try'
p124
aS'I really like the keyboard my Dell xps m1330 often inserts an extra letter if I hit a key too hard or at the other end of the spectrum misses a key'
p125
aS'Never happens with this one'
p126
aS'More than one person on seeing the computer has thought I finally upgraded to Mac'
p127
aS'Note Did a clean install of windows 7 from a usb drive no problems to get rid of bloatware'
p128
aS'All updated drivers available for download on the Asus website'
p129
aS"There's a very nice summary of all Asus installed software at NotebookReview dot com forums search bloatware in the Asus section"
p130
asS'k'
p131
I18
sS'id'
p132
I2
sba(ireviewModules
Review
p133
(dp134
g3
(lp135
(lp136
F1.4188238438711107
aI0
aF2.559847269698496
aF1.4998231846234442
aF5.899937436319972
aI0
aF3.3681034028347163
aI0
aF2.5250774362957733
aF1.3407241379206776
aI0
aI0
aI0
aF4.527914973057489
aF1.3545839559827617
aF4.603916410470135
aI0
aF1.9105971268052797
aF1.1175190687418637
aF1.1175190698702104
aF1.1175190687418637
aF1.117519068896784
aF450.8393231734074
aF1.1175190687418637
aF1.1175190706344433
aF1.1175190812898728
aF1.1175190705076956
aF1.1175190687418637
aF1.1175190688618803
aF1.1175190687418637
aF1.1175190785431208
aF1.117519156576255
aF8.257411088375633
aF1.1175190687434493
aF1.117519068888723
aF1.1175190687424692
aF0.4355426646641978
aI18
aI18
aa(lp137
I0
aF2.0589191012024495
aF1.7641993678454784
aF1.5043963098867867
aF1.8218942469017518
aI0
aF3.34220064532016
aI0
aF4.050192057480823
aF1.3108231067630058
aI0
aI0
aI0
aF3.013806861513825
aI0
aF14.847063673273702
aI0
aF2.4864056428113357
aF1.8972645594500448
aF1.9106131735211933
aI0
aI0
aF8.317900678524266
aI0
aF3.382748056108067
aI0
aF2.6079834160890143
aF1.5524196358054132
aI0
aI0
aI0
aF3.4611886521000645
aF1.5525189799742587
aF5.0951697756218195
aI0
aF1.6188293252397028
aF0.32541241105033647
aI18
aI18
aa(lp138
I0
aF1.820842990300905
aF2.9173416526287674
aF1.9540299060959305
aF1.8845853800471448
aI0
aF1.6783600053011136
aI0
aF4.275528678474606
aI0
aI0
aI0
aI0
aF7.713392117791082
aI0
aF5.532890201637031
aI0
aF2.9292894939433736
aF1.4184952074660868
aI0
aF2.5591081535276765
aF1.4998399040998236
aF5.898467201029638
aI0
aF3.368190123477116
aI0
aF2.525071850080533
aF1.3407241379285078
aI0
aI0
aI0
aF4.528233666341744
aF1.3545842401688435
aF4.606961465419458
aI0
aF1.9106032299135869
aF0.16786217999361175
aI18
aI18
aa(lp139
I0
aF2.4265659745696335
aI0
aI0
aI0
aF2.2523312736790055
aI0
aI0
aF7.767283004598284
aI0
aI0
aI0
aI0
aF5.6119158091283925
aI0
aF53.047562759669034
aI0
aI0
aI0
aF2.0592325166492422
aF1.764072884927064
aF1.5044242359060374
aF1.821524597226909
aI0
aF3.342505913176292
aI0
aF4.05018245992627
aF1.3108231067655152
aI0
aI0
aI0
aF3.0138419678071116
aI0
aF14.846998852079356
aI0
aF2.4864245144970427
aF0.065976936486556
aI18
aI18
aa(lp140
F2.0212248784875473
aI0
aI0
aF2.7134377940386183
aF5.909631959460796
aI0
aI0
aI0
aI0
aI0
aI0
aI0
aI0
aF16.073060545620635
aI0
aF8.892465488412531
aF3.0486623604193945
aI0
aI0
aF1.8208426211548896
aF2.9175590806371345
aF1.9540588790792286
aF1.8845750258975373
aI0
aF1.6783555796786167
aI0
aF4.27552647628495
aI0
aI0
aI0
aI0
aF7.713542145203065
aI0
aF5.532343754461091
aI0
aF2.929286017315802
aF0.18875229879760425
aI18
aI18
aa(lp141
F1.93425496605846
aI0
aI0
aF2.335486682994088
aF12.271271076663185
aF1.9342549687571542
aI0
aI0
aI0
aI0
aI0
aI0
aI0
aF4.121224890598685
aI0
aF12.618378482836887
aF2.6961508423831115
aI0
aI0
aF2.4263645124967788
aI0
aI0
aI0
aF2.2523312736795384
aI0
aI0
aF7.768337821782237
aI0
aI0
aI0
aI0
aF5.605835911544725
aI0
aF53.10229423943349
aI0
aI0
aF0.30735308107023596
aI18
aI18
aa(lp142
F1.8013209672122716
aI0
aI0
aF3.305277732681782
aF4.9764216931042125
aF1.7975412525777315
aI0
aI0
aI0
aI0
aI0
aI0
aI0
aF1.9523192809869814
aF1.79764916993883
aF24.964576809766843
aF3.466795337538783
aI0
aF2.0212248784874314
aI0
aI0
aF2.713550118058261
aF5.908204578706197
aI0
aI0
aI0
aI0
aI0
aI0
aI0
aI0
aF16.072580882279933
aI0
aF8.893227627323403
aF3.0491023441931384
aI0
aF0.41009749934152273
aI18
aI18
aa(lp143
I0
aI0
aF29.809475071836175
aF3.3806709030913984
aI0
aF3.231154587522369
aI0
aI0
aI0
aI0
aI0
aI0
aF9.38127685127375
aI0
aF3.2319153151921616
aI0
aI0
aI0
aF1.9342549660586932
aI0
aI0
aF2.335462756452752
aF12.27096633969932
aF1.9342549687574364
aI0
aI0
aI0
aI0
aI0
aI0
aI0
aF4.1209003192752345
aI0
aF12.618071300771229
aF2.6965234275189265
aI0
aF0.9760928059233555
aI18
aI18
aa(lp144
I0
aI0
aI0
aF6.406220327147586
aI0
aI0
aI0
aI0
aI0
aI0
aI0
aI0
aI0
aI0
aF5.810872920682861
aF147.541693527199
aI0
aI0
aF1.801320479830848
aI0
aI0
aF3.3052891994820035
aF4.980157498056971
aF1.7975412525771217
aI0
aI0
aI0
aI0
aI0
aI0
aI0
aF1.9525275517834944
aF1.7976491930996963
aF24.981314040690233
aF3.4614934016628816
aI0
aF0.03918101236948146
aI18
aI18
aa(lp145
F1.7429089986334574
aF1.7429089986334574
aF1.7429089986334574
aF1.7429089986334574
aF1.7429089986334574
aF1.7429089986334574
aF1.7429089986334574
aF1.7429089986334574
aF1.7429089986334574
aF1.7429089986334574
aF1.7429089986334574
aF1.7429089986334574
aF1.7429089986334574
aF1.7429089986334574
aF1.7429089986334574
aF1.7429089986334574
aF1.7429089986334574
aF1.7429089986334574
aI0
aI0
aF29.809472883075156
aF3.381206591275009
aI0
aF3.231154587383417
aI0
aI0
aI0
aI0
aI0
aI0
aF9.379790531035047
aI0
aF3.231915541172453
aI0
aI0
aI0
aF0.6361417577068078
aI18
aI18
aasg39
S"I wanted to replace my 2005 laptop with a 4GB, Core i3 machine and went looking for the best bang for the buck in this category.  I did not want thin and light - this machine would rarely leave the house and I would just get a desktop except that, these days, it's nice to be able to move the PC from desk to couch to bed to kitchen for use as a TV, as a phone, as a photo album, as toddler entertainment...The HP was on sale and provided the absolute max amount of screen for the dollar, and that was the deciding factor for me.*|*|*  Unlike a few years ago, most current laptops now have tremendous similarity in design and subcontractor components, so they all have decent keyboard, memory, hard drive, webcam, etc.  But the screen on the HP was enormous compared to others at this price point and the casing had a nice texture.I am very, very happy with this machine.  If you are looking for desktop replacement, go big and you will not be disappointed.*|*|*  The only minor flaw so far is the miniature up/down arrows mentioned by another reviewer, though you canalways  use the numeric keypad as backup arrows.  I actually like the reprogramming of the useless F1-F12 keys for volume and other functions (a la Mac Book Pro) and consider this a plus.*|*|* Again, great value, great feel, freaking giant screen.  Love it."
p146
sg41
(lp147
I0
aI0
aI1
aI0
aI0
aI0
aI1
aI0
aI1
aI0
asg43
g44
(g45
(I0
tp148
g47
tp149
Rp150
(I1
(I10
tp151
g54
I00
S'\x00\x00\x00\x00\x00\x00\x00\x00\x00\x00\x00\x00\x00\x00\x00\x00\x00\x00\x00\x00\x00\x00\x00\x00\x00\x00\x00\x00\x00\x00\x00\x00\x00\x00\x00\x00\x00\x00\x00\x00\x00\x00\x00\x00\x00\x00\x00\x00\x00\x00\x00\x00\x00\x00\x00\x00\x00\x00\x00\x00\x00\x00\x00\x00\x00\x00\x00\x00\x00\x00\x00\x00\x00\x00\x00\x00\x00\x00\x00\x00'
p152
tp153
bsg59
(lp154
(lp155
I4
aa(lp156
I15
aa(lp157
I2
aa(lp158
I16
aa(lp159
I13
aa(lp160
I7
aa(lp161
I16
aa(lp162
I2
aa(lp163
I15
aa(lp164
I0
aI1
aI2
aI3
aI4
aI5
aI6
aI7
aI8
aI9
aI10
aI11
aI12
aI13
aI14
aI15
aI16
aI17
aasg95
(lp165
S'I wanted to replace my 2005 laptop with a 4GB Core i3 machine and went looking for the best bang for the buck in this category'
p166
aS"I did not want thin and light this machine would rarely leave the house and I would just get a desktop except that these days it's nice to be able to move the PC from desk to couch to bed to kitchen for use as a TV as a phone as a photo album as toddler entertainment The HP was on sale and provided the absolute max amount of screen for the dollar and that was the deciding factor for me"
p167
aS'Unlike a few years ago most current laptops now have tremendous similarity in design and subcontractor components so they all have decent keyboard memory hard drive webcam etc'
p168
aS'But the screen on the HP was enormous compared to others at this price point and the casing had a nice texture'
p169
aS'I am very very happy with this machine'
p170
aS'If you are looking for desktop replacement go big and you will not be disappointed'
p171
aS'The only minor flaw so far is the miniature up down arrows mentioned by another reviewer though you canalways use the numeric keypad as backup arrows'
p172
aS'I actually like the reprogramming of the useless F1 F12 keys for volume and other functions a la Mac Book Pro and consider this a plus'
p173
aS'Again great value great feel freaking giant screen'
p174
aS'Love it'
p175
asg131
I18
sg132
I31
sba(ireviewModules
Review
p176
(dp177
g3
(lp178
(lp179
I0
aF2.0895707515013617
aI0
aI0
aF5.607098304079852
aI0
aI0
aF7.528766821976836
aF6.798160846999461
aI0
aI0
aI0
aI0
aI0
aF1.8663204481838263
aF5.558280428105035
aI0
aF2.3559865846405708
aF1.1175190687418637
aF1.1175190701008146
aF1.1175190761527076
aF1.1175190754939777
aF1.117519073386326
aF1.1175190687418637
aF1.1175190713344039
aF26.21896643953578
aF1.1175190933826986
aF1.1175190687418637
aF1.1175190687418637
aF1.1175190687418637
aF141.987510084337
aF1.117519071785078
aF1.1175190687418637
aF1.117519083377382
aF1.1175190705091225
aF1.1175190766194527
aF0.8837089948438375
aI18
aI18
aa(lp180
I0
aF3.153172251744964
aI0
aF1.8396028945166096
aI0
aI0
aI0
aF3.939322577663557
aF10.219531580193378
aF1.7975413214900255
aI0
aI0
aI0
aI0
aF2.0824107657091426
aI0
aF10.292836619457816
aF1.7980369718809284
aI0
aF2.977350474211799
aI0
aI0
aI0
aI0
aI0
aF3.7822132603817598
aF5.808588042958115
aI0
aI0
aI0
aF17.139922750748408
aI0
aF2.873237252195934
aI0
aF3.5106557980374578
aI0
aF0.5872107555758843
aI18
aI18
aa(lp181
F1.567818853146364
aF3.582334667659268
aF1.7689978590015105
aF1.8300595810517555
aF3.35591069589453
aI0
aI0
aF3.1984680733595052
aF2.9931845678679316
aF1.552419768376735
aI0
aI0
aI0
aI0
aI0
aF7.8201055307098875
aI0
aF2.58081954901673
aI0
aF2.0895504927590167
aI0
aI0
aF5.600807119628315
aI0
aI0
aF7.532790703647089
aF6.797470017181252
aI0
aI0
aI0
aI0
aI0
aF1.8665013468677643
aF5.561880532437514
aI0
aF2.355881072938589
aF0.18665927832251183
aI18
aI18
aa(lp182
F1.7939028229144924
aF7.036371664819053
aF1.9493311569009977
aF3.1202133336779014
aF1.9910344796045012
aF1.5524197155118558
aF1.979076015643885
aI0
aI0
aF1.552419768886158
aI0
aI0
aF1.3984586587266614
aI0
aI0
aF10.68440101205054
aI0
aF1.7194756960664597
aI0
aF3.1531644359734234
aI0
aF1.839648115513861
aI0
aI0
aI0
aF3.9352658014218123
aF10.22138477276394
aF1.7975413215068443
aI0
aI0
aI0
aI0
aF2.0812659127850113
aI0
aF10.307022889728339
aF1.7980361235037423
aF0.8481494177191115
aI18
aI18
aa(lp183
F3.3353692763135467
aF6.1967099808696124
aF1.7334372440359607
aI0
aF5.434714087385276
aF1.6157479717677765
aF2.1397012605154577
aF1.7325177245816183
aI0
aI0
aI0
aI0
aI0
aI0
aI0
aF2.3297366431208926
aF3.8970212310669443
aF1.6997090338194374
aF1.5679513791360145
aF3.582335460545024
aF1.7690705375639155
aF1.8299798462754318
aF3.3571651227969013
aI0
aI0
aF3.1977704233963893
aF2.9932936834763577
aF1.5524197683608607
aI0
aI0
aI0
aI0
aI0
aF7.818567440100034
aI0
aF2.5806193029761744
aF0.35418133773273
aI18
aI18
aa(lp184
F2.02122489541734
aF3.9381946989895034
aI0
aI0
aI0
aF3.936808632208269
aI0
aF2.027126883397594
aI0
aI0
aI0
aI0
aI0
aF2.291837016873888
aF2.02122489217287
aI0
aF12.359299541523795
aF4.18182365810041
aF1.7935256840701284
aF7.036911136698986
aF1.9489393473093495
aF3.1191833448240684
aF1.9912567888476427
aF1.552419715510351
aF1.9784468466031049
aI0
aI0
aF1.5524197688723744
aI0
aI0
aF1.3987154049809105
aI0
aI0
aF10.69157797222187
aI0
aF1.71950321199299
aF0.7856192653544184
aI18
aI18
aa(lp185
F1.7975412513761657
aI0
aF7.056832014303718
aI0
aI0
aF1.797541254864899
aF4.1191444662432
aF1.8062727219646346
aI0
aI0
aI0
aI0
aI0
aF2.4801767792836307
aF1.7976344408923262
aI0
aF21.38756906347597
aI0
aF3.335228496117321
aF6.196746915837526
aF1.733299306145245
aI0
aF5.433146413182938
aF1.6157479717623235
aF2.137928485152533
aF1.7327782373851845
aI0
aI0
aI0
aI0
aI0
aI0
aI0
aF2.3337162223158483
aF3.894561284525174
aF1.69972187473625
aF0.5359515576481788
aI18
aI18
aa(lp186
I0
aI0
aF6.88514903645334
aI0
aF5.43565758673478
aF1.7429089986792137
aF4.768964748276759
aF1.7651779248275152
aI0
aI0
aI0
aI0
aI0
aI0
aF1.750249238203451
aF16.615247216358593
aI0
aI0
aF2.021224895417323
aF3.938194679942845
aI0
aI0
aI0
aF3.9368086322079585
aI0
aF2.0271274344911263
aI0
aI0
aI0
aI0
aI0
aF2.291667640672516
aF2.0212248921730276
aI0
aF12.3603773514347
aF4.181766941417954
aF0.9518408568479331
aI18
aI18
aa(lp187
I0
aI0
aF6.059983851861643
aI0
aF5.772010319052747
aI0
aF6.52356150149664
aF1.8829455238234596
aI0
aI0
aI0
aI0
aI0
aI0
aI0
aF33.52119858978546
aI0
aI0
aF1.7975412513757858
aI0
aF7.064267017235049
aI0
aI0
aF1.7975412548638725
aF4.118618659459262
aF1.8062667039242812
aI0
aI0
aI0
aI0
aI0
aF2.4807778884265823
aF1.797634402924271
aI0
aF21.36268071852624
aI0
aF0.9108800034771298
aI18
aI18
aa(lp188
I0
aI0
aI0
aI0
aF33.08650542419369
aI0
aF9.630293549409423
aF2.9791331707089705
aI0
aI0
aI0
aI0
aI0
aI0
aI0
aF10.660556304538348
aI0
aI0
aI0
aI0
aF6.884704313700484
aI0
aF5.434284803188244
aF1.7429089986796542
aF4.768380200602206
aF1.7651717657000152
aI0
aI0
aI0
aI0
aI0
aI0
aF1.7502473072562759
aF16.622631848255693
aI0
aI0
aF0.42537339480751546
aI18
aI18
aa(lp189
I0
aI0
aF2.583562447515036
aI0
aF23.21363205474308
aI0
aF2.0042459247329822
aI0
aI0
aI0
aI0
aF2.1254175106830586
aI0
aI0
aF4.343010637231525
aF12.330755888318704
aI0
aI0
aI0
aI0
aF6.060004038467509
aI0
aF5.774336451247248
aI0
aF6.52388823109137
aF1.8829566024373985
aI0
aI0
aI0
aI0
aI0
aI0
aI0
aF33.505708036178845
aI0
aI0
aF0.3922868336886952
aI18
aI18
aa(lp190
I0
aI0
aF4.060285286045564
aF1.8879950583220595
aF14.138682208567895
aI0
aF1.9178573663350857
aI0
aI0
aI0
aI0
aF1.8716583521735564
aI0
aI0
aF6.089253066387337
aF6.490118729065603
aI0
aI0
aI0
aI0
aI0
aI0
aF33.06273017326203
aI0
aF9.626680556581007
aF2.979006900055211
aI0
aI0
aI0
aI0
aI0
aI0
aI0
aF10.672678515879268
aI0
aI0
aF0.12311467268474763
aI18
aI18
aa(lp191
I0
aF2.159358113093819
aF6.842469799661764
aF1.7027142135041553
aF9.058995899294342
aI0
aF1.7324563721277821
aI0
aI0
aI0
aI0
aF1.7038441298272167
aI0
aI0
aF4.643706110640458
aF3.218213340247681
aI0
aF1.7062398549735862
aI0
aI0
aF2.5835934281186805
aI0
aF23.213697275703282
aI0
aF2.0042478626866442
aI0
aI0
aI0
aI0
aF2.1254175106832727
aI0
aI0
aF4.343010638024449
aF12.33056145780028
aI0
aI0
aF0.1771535512639295
aI18
aI18
aa(lp192
I0
aF2.8463269039253296
aF23.591201965092452
aF2.0616911402942035
aF2.4427755759093506
aI0
aF2.411944047067328
aI0
aI0
aI0
aI0
aF2.03475793323491
aI0
aI0
aF3.960748616855915
aI0
aI0
aF2.3136396758894726
aI0
aI0
aF4.064759232356769
aF1.8879778926449715
aF14.141214385161314
aI0
aF1.9178716137457004
aI0
aI0
aI0
aI0
aF1.8716594759277996
aI0
aI0
aF6.089257862979264
aF6.4818161882584615
aI0
aI0
aF0.6126339223743511
aI18
aI18
aa(lp193
I0
aF18.72376809835528
aF10.396198487485654
aF2.252331303683741
aF2.527791717693457
aI0
aI0
aI0
aI0
aI0
aI0
aF2.2523313934432
aI0
aI0
aF2.2523312542760228
aI0
aI0
aF2.448405565520235
aI0
aF2.1407539970903344
aF6.347182098302417
aF1.7068603865269838
aF9.125957539432935
aI0
aI0
aI0
aI0
aI0
aI0
aF1.7037963552006286
aI0
aI0
aF4.643426051297541
aF3.1834265794249696
aF1.8852359080810421
aF1.7069872199246787
aF0.47649044772793636
aI18
aI18
aa(lp194
F6.086323898357468
aF17.122961034473146
aF6.479782069366514
aF2.610641457528532
aI0
aI0
aI0
aI0
aI0
aI0
aI0
aF2.610641541830326
aI0
aI0
aF2.6106413776388564
aI0
aI0
aI0
aI0
aF2.847053699533997
aF23.591913697379887
aF2.0617086804592613
aF2.4431661705710233
aI0
aF2.410642490701384
aI0
aI0
aI0
aI0
aF2.0347568662316027
aI0
aI0
aF3.9607467573641437
aI0
aI0
aF2.313840728166911
aF0.5435244473923835
aI18
aI18
aa(lp195
F8.546373935685391
aF100.84063658363286
aI0
aF3.231154507495486
aF3.3331386955966407
aI0
aI0
aI0
aI0
aI0
aI0
aI0
aI0
aI0
aI0
aI0
aI0
aI0
aI0
aF18.723442382742743
aF10.396218959530728
aF2.252331303683762
aF2.527743330120294
aI0
aI0
aI0
aI0
aI0
aI0
aF2.2523313934433626
aI0
aI0
aF2.2523312542760543
aI0
aI0
aF2.448490206354024
aF0.14780034781963247
aI18
aI18
aa(lp196
F31.06316373543127
aF23.015568091672495
aI0
aI0
aF12.20542439808265
aI0
aI0
aI0
aI0
aI0
aI0
aI0
aI0
aI0
aI0
aI0
aI0
aI0
aF6.0872860091144
aF17.12025389968901
aF6.479782069440032
aF2.610641457545372
aI0
aI0
aI0
aI0
aI0
aI0
aI0
aF2.6106415419310425
aI0
aI0
aF2.6106413776994057
aI0
aI0
aI0
aF0.27407798136560535
aI18
aI18
aa(lp197
F19.10339545296275
aI0
aI0
aI0
aF17.0075454177868
aI0
aI0
aI0
aI0
aI0
aI0
aI0
aI0
aI0
aI0
aF31.782028873571978
aI0
aI0
aF8.547376700544177
aF100.83248259833512
aI0
aF3.2311545074955164
aF3.3330171657854244
aI0
aI0
aI0
aI0
aI0
aI0
aI0
aI0
aI0
aI0
aI0
aI0
aI0
aF0.9467723270608885
aI18
aI18
aa(lp198
F3.5363368922363274
aI0
aI0
aF2.052163605983355
aF161.40885090887875
aI0
aI0
aI0
aI0
aI0
aI0
aI0
aI0
aI0
aI0
aF2.9657464288661455
aF4.037217375210037
aI0
aF21.85046348101741
aF5.956934715113479
aI0
aI0
aF13.48557392254731
aI0
aI0
aI0
aI0
aI0
aI0
aI0
aI0
aI0
aI0
aI0
aF5.287807677141279
aI0
aF0.4760726645041812
aI18
aI18
aa(lp199
F3.569138815400579
aI0
aI0
aF2.0617485748865283
aF32.917706226167425
aI0
aI0
aI0
aI0
aI0
aI0
aF1.9342550937276588
aI0
aI0
aI0
aF2.7322039124206126
aF11.343137961734817
aI0
aF19.12824745218538
aI0
aI0
aI0
aF16.96090427975439
aI0
aI0
aI0
aI0
aI0
aI0
aI0
aI0
aI0
aI0
aF31.828021681163865
aI0
aI0
aF0.5037268861574755
aI18
aI18
aa(lp200
F2.125417502760074
aI0
aF3.4127262536362752
aF2.1281528207003335
aF33.6829443876674
aI0
aI0
aI0
aI0
aI0
aI0
aF2.1254175389821075
aI0
aI0
aI0
aI0
aF12.380411849619692
aI0
aF3.5334748978004606
aI0
aI0
aF2.0522984264145676
aF161.4588155649423
aI0
aI0
aI0
aI0
aI0
aI0
aI0
aI0
aI0
aI0
aF2.9648558648945658
aF4.040184877043894
aI0
aF0.060621993873289926
aI18
aI18
aa(lp201
F2.8735711434966253
aI0
aF7.803511934184172
aF2.881618473015101
aI0
aI0
aI0
aI0
aI0
aI0
aI0
aF2.8735712040847106
aI0
aI0
aI0
aF4.216246122881645
aF14.445038605519134
aI0
aF3.569225615165318
aI0
aI0
aF2.0617455640436284
aF32.918525282385865
aI0
aI0
aI0
aI0
aI0
aI0
aF1.9342550936882925
aI0
aI0
aI0
aF2.7325650592466855
aF11.341097364264042
aI0
aF0.6832510253067394
aI18
aI18
aa(lp202
F2.950195057836918
aI0
aF13.170805448374658
aF1.758294502132449
aF4.438433387408439
aF1.7429089741095092
aI0
aF3.7952482270218306
aF2.136515183118571
aI0
aI0
aI0
aI0
aI0
aI0
aF3.836655880798227
aI0
aI0
aF2.12541750277386
aI0
aF3.414836627857463
aF2.12815601185689
aF33.70238137179642
aI0
aI0
aI0
aI0
aI0
aI0
aF2.1254175390356163
aI0
aI0
aI0
aI0
aF12.365606521225109
aI0
aF0.6369842742698155
aI18
aI18
aa(lp203
F2.9501950610079697
aI0
aF6.9011694498216904
aF1.7529506776473958
aF3.877118535572024
aF1.742908974301835
aI0
aF3.8627412029226877
aF1.8634946322248287
aI0
aI0
aI0
aI0
aI0
aI0
aF9.471253354886812
aI0
aI0
aF2.873571143515261
aI0
aF7.804043737423897
aF2.881614548680917
aI0
aI0
aI0
aI0
aI0
aI0
aI0
aF2.873571204154914
aI0
aI0
aI0
aF4.214248814981042
aF14.450919572591168
aI0
aF0.5542897033011459
aI18
aI18
aa(lp204
F2.950195053052146
aI0
aF7.7304210516562595
aI0
aF4.060386196350168
aF1.7429089717887931
aI0
aF3.839189939020188
aF3.0764850334008336
aI0
aI0
aI0
aI0
aI0
aI0
aF8.376625793062315
aI0
aI0
aF2.950195057879907
aI0
aF13.18295801625727
aF1.7582975448291926
aF4.438600155089659
aF1.7429089741201664
aI0
aF3.794116106790473
aF2.1354827481242014
aI0
aI0
aI0
aI0
aI0
aI0
aF3.835965791818624
aI0
aI0
aF0.11962283166669563
aI18
aI18
aa(lp205
I0
aI0
aF6.549466203380814
aI0
aI0
aI0
aI0
aI0
aF2.386297164327604
aI0
aI0
aI0
aI0
aI0
aI0
aF742.3701211229122
aI0
aI0
aF2.9501950609829977
aI0
aF6.915334060313314
aF1.7529453642881376
aF3.8760119886906232
aF1.74290897429763
aI0
aF3.861750313419439
aF1.8636611898642645
aI0
aI0
aI0
aI0
aI0
aI0
aF9.456161283079172
aI0
aI0
aF0.3007520490739479
aI18
aI18
aa(lp206
I0
aI0
aF2.8402951486795116
aI0
aI0
aI0
aI0
aI0
aF6.640410267588126
aI0
aI0
aI0
aI0
aI0
aI0
aF583.1671201207148
aI0
aI0
aF2.9501950530429593
aI0
aF7.734400524908831
aI0
aF4.059994010263745
aF1.742908971786837
aI0
aF3.8388822229247337
aF3.076458210981868
aI0
aI0
aI0
aI0
aI0
aI0
aF8.373868809556566
aI0
aI0
aF0.3745805802836484
aI18
aI18
aa(lp207
I0
aI0
aI0
aI0
aF3.7343564359506582
aI0
aI0
aI0
aI0
aI0
aI0
aI0
aI0
aI0
aI0
aF2196.8287719906402
aI0
aI0
aI0
aI0
aF6.549924167183722
aI0
aI0
aI0
aI0
aI0
aF2.386316939728487
aI0
aI0
aI0
aI0
aI0
aI0
aF742.3120637969618
aI0
aI0
aF4.5537661917727235e-05
aI18
aI18
aa(lp208
I0
aI0
aI0
aI0
aF86.40279201475892
aI0
aI0
aI0
aI0
aI0
aF4.5173995550347525
aI0
aI0
aI0
aI0
aF4.112354985255456
aF4.517399540446632
aI0
aI0
aI0
aF2.8405333413182587
aI0
aI0
aI0
aI0
aI0
aF6.637665497457419
aI0
aI0
aI0
aI0
aI0
aI0
aF583.3593463908284
aI0
aI0
aF0.9525914180696592
aI18
aI18
aa(lp209
I0
aI0
aI0
aI0
aF84.19840671962343
aI0
aF4.341647865309154
aI0
aI0
aI0
aF2.1254174977621654
aI0
aI0
aI0
aI0
aF1.9082547149063216
aF8.868801607982464
aI0
aI0
aI0
aI0
aI0
aF3.736882048548381
aI0
aI0
aI0
aI0
aI0
aI0
aI0
aI0
aI0
aI0
aF2195.344021545348
aI0
aI0
aF0.9758136411796964
aI18
aI18
aa(lp210
I0
aI0
aI0
aI0
aF82.24661248147898
aI0
aF3.6136640175991563
aI0
aI0
aI0
aF3.6136640332829653
aF1.934254970313055
aI0
aI0
aI0
aI0
aF6.751213172779689
aI0
aI0
aI0
aI0
aI0
aF86.47763404020151
aI0
aI0
aI0
aI0
aI0
aF4.517399555015831
aI0
aI0
aI0
aI0
aF4.10879594627542
aF4.517399539863085
aI0
aF0.002822300709944048
aI18
aI18
aa(lp211
I0
aI0
aF1.7580845314714078
aF2.355659455893392
aF17.84349524252411
aI0
aF6.625633477036367
aI0
aF4.490620784345621
aF1.5463058795643285
aF1.5533343616829645
aF1.5538588208060364
aI0
aI0
aI0
aI0
aF2.179359625903805
aI0
aI0
aI0
aI0
aI0
aF84.81137500474352
aI0
aF4.341647865270042
aI0
aF1.955994200352014
aI0
aF2.125417497669279
aI0
aI0
aI0
aI0
aI0
aF8.58980852811502
aI0
aF0.08265195509105372
aI18
aI18
aa(lp212
I0
aF1.9039604456467314
aF8.382395085264909
aF2.5217861886984068
aF8.206281624028241
aI0
aF2.559568881865469
aI0
aF4.176112522408368
aF1.687855728749066
aF1.6963662225609935
aF1.6970573158552644
aI0
aI0
aI0
aI0
aI0
aI0
aI0
aI0
aI0
aI0
aF82.24661027712423
aI0
aF3.613664017600681
aI0
aI0
aI0
aF3.6136640332878316
aF1.9342549703146432
aI0
aI0
aI0
aI0
aF6.751213172784456
aI0
aF0.3752328187528172
aI18
aI18
aa(lp213
I0
aF2.0552109702136008
aF5.868708589768876
aF3.409916336223584
aF6.082402905188432
aI0
aF3.996246799408749
aI0
aF6.553281142412162
aF1.6110233451339258
aI0
aI0
aI0
aI0
aI0
aI0
aF1.621226477719363
aI0
aI0
aI0
aF1.757420830405565
aF2.3556594542093907
aF17.853373290629225
aI0
aF6.625368796063611
aI0
aF4.489797437782511
aF1.5463064934047883
aF1.5533343598361677
aF1.5538588179963533
aI0
aI0
aI0
aI0
aF2.179462199523486
aI0
aF0.2358623069691822
aI18
aI18
aa(lp214
I0
aF11.24447159177695
aF16.858494408889516
aI0
aF11.318206999768933
aI0
aI0
aI0
aF2.6085440161043927
aI0
aI0
aI0
aI0
aI0
aI0
aI0
aF2.258065070360187
aI0
aI0
aF1.9039378361691695
aF8.385965196038736
aF2.5218004566533443
aF8.2060841260429
aI0
aF2.560742605125836
aI0
aF4.172547975308538
aF1.6878556122119934
aF1.6963662232702028
aF1.6970573169650647
aI0
aI0
aI0
aI0
aI0
aI0
aF0.15388653168694788
aI18
aI18
aa(lp215
I0
aF6.879162298942182
aF15.405895781328748
aI0
aF6.981894073659267
aI0
aF3.2463922860271492
aI0
aF1.9774968386881226
aI0
aI0
aI0
aI0
aI0
aF1.7975413709908292
aI0
aF1.8369938295887656
aI0
aI0
aF2.0553786471124003
aF5.868626738424523
aF3.4097011253723792
aF6.082289990956953
aI0
aF3.9963544176430505
aI0
aF6.553196196967222
aF1.6110233242072989
aI0
aI0
aI0
aI0
aI0
aI0
aF1.6212266230630812
aI0
aF0.240640028835999
aI18
aI18
aa(lp216
I0
aF7.458078762048266
aF45.20236403033688
aI0
aF4.628958717006591
aI0
aF2.423704452209925
aI0
aI0
aI0
aI0
aI0
aI0
aI0
aF1.934256643411243
aI0
aF1.9848313103263278
aI0
aI0
aF11.244479690334943
aF16.85844781793617
aI0
aF11.318252068234667
aI0
aI0
aI0
aF2.6085388801172007
aI0
aI0
aI0
aI0
aI0
aI0
aI0
aF2.2580651391142266
aI0
aF0.16716427880501228
aI18
aI18
aa(lp217
I0
aF20.85893149987911
aF13.854615060497004
aI0
aF2.1130166507044565
aI0
aF2.273271569533056
aI0
aF2.759416513237281
aI0
aI0
aI0
aI0
aI0
aF1.934256028431026
aI0
aF2.0290674003744926
aI0
aI0
aF6.87781791051599
aF15.403919372216185
aI0
aF6.985119323880261
aI0
aF3.2460012070673363
aI0
aF1.977447465246284
aI0
aI0
aI0
aI0
aI0
aF1.797541371037716
aI0
aF1.8370073287009165
aI0
aF0.18531218898172774
aI18
aI18
aa(lp218
I0
aF20.408015785266752
aI0
aI0
aI0
aI0
aI0
aI0
aF64.86645495310407
aI0
aI0
aI0
aI0
aI0
aI0
aI0
aF5.059488571645854
aI0
aI0
aF7.457961008162165
aF45.206801563903774
aI0
aF4.6297590561431265
aI0
aF2.423088706801539
aI0
aI0
aI0
aI0
aI0
aI0
aI0
aF1.9342566436126816
aI0
aF1.9848289751606254
aI0
aF0.9484971443729323
aI18
aI18
aa(lp219
F1.1489964279393956
aF1.1489964907106218
aF1.1489964299066524
aF1.1489964266411452
aF1.1489964266411452
aF1.1489964266411452
aF1.1489964266411452
aF1.1489964449079124
aF2077.4341114748445
aF1.1489964266411452
aF1.1489964266411452
aF1.1489964266411452
aF1.1489964266411452
aF1.1489964266411452
aF1.1489964266411452
aF1.1489964266411452
aF1.1489964280211222
aF1.1489964279336313
aI0
aF20.8601103133338
aF13.854611727930953
aI0
aF2.1130149969493086
aI0
aF2.273285829581184
aI0
aF2.759242953436068
aI0
aI0
aI0
aI0
aI0
aF1.9342560283772567
aI0
aF2.0290697085811047
aI0
aF0.8910238270904054
aI18
aI18
aasg39
S"Edit: 3/26/08 - Five Stars *****Replacement unit is working perfectly!--------------------------------------*|*|* After a week of ownership I'll say this device does exactly what was expected and at a reasonable speed.  Hard drive could be a little faster during bootup, but is responsive during general use.  Given the tiny keyboard, don't expect this to be a laptop replacement.. rather a very portable computer for those not requiring lots of data entry.I planned to use mine for couchtop browsing, light email, portable media entertainment, and to perform mobile wireless surveys for my occupation.*|*|* By many accounts the previous gen Q1's and OQO's A110 cpu is underpowered, so I chose the Q1UP with a Core Solo processor.*|*|* PROs: ---Processor is well matched to the machine (no speed demon but not slow either). Programs start quickly, DVD rips play without stutter.*|*|* Beautiful and bright screen, web pages fit nicely width-wise and buttons make scrolling easy.  Small fonts are extremely clear and readable (though some may have trouble with this).  DVD rips and photos look great. (A remote would be nice!)  Passive digitizer works well, and unlike my other tablet's active screen I love being able to use my fingers, reducing stylus usage somewhat.  Haven't really done any inking so can't comment on palm-on-the-screen issues.*|*|*  You can play Solitaire with a finger!With it's PSP-like shape it looks like it will be fun to play games.  Mouse can be switched to joystick mode with a button press.  Don't load Oblivion though.. its not meant for high-end 3D games.*|*|* Rear camera quality (1.3mp) is surprisingly good, at least as viewed from the screen.  Front facing camera (0.3mp) is of decent quality and more than adequate for video chat.*|*|* Split-Qwerty thumb-keyboard:  fine for short entry like URLs, filenames and short emails.  Thank goodness this is the improved kb, as anything less would be quite difficult.  Button size is similar to that of my Treo 700.  I wasn't expecting to get much typing done this way but its so much better than always having to do tablet entry.  Included is a program called 'Dialkeys' which throws a larger thumb-board on the screen and is better for longer entries.. it does eat up some screen space. Being left-handed, I like the mouse on the left.*|*|* Battery life seems good given this model comes with the extended battery.  Watched a 2 hour DVD rip with screen on full brightness and still had 3+ hours of regular usage left.  Rated life is 7.5 hours.*|*|* Comes with a USB cable for transferring files between computers.  Plug both ends in and Voila', a file-manager-like program appears on both machines allowing easy transfer of files.  No software installation necessary, it just works.*|*|* CONs: ---None really, except for an annoying problem with my unit:  (Update: Unit replaced, problem gone!)When picking up or otherwise handling the unit, the 'Play Camera' program starts and takes a picture.  (Should only happen when touching the shutter button)  Subsequent handling causes many pictures to be taken and after 5 minutes I might have 50 pics that need to be deleted.  No use killing the program, as it will usually start up again.  The shutter button moves freely and isn't bound up, so I don't understand why the slight case flexing causes it to take a picture.  Oddly it doesn't always happen, but 75% of the time does.  I'm hoping its a defect with my particular unit as I plan to swap it for the same model."
p220
sg41
(lp221
I0
aI1
aI0
aI0
aI0
aI1
aI1
aI0
aI1
aI0
aI0
aI0
aI0
aI0
aI1
aI0
aI0
aI1
aI0
aI0
aI0
aI1
aI0
aI0
aI0
aI0
aI0
aI1
aI0
aI0
aI0
aI1
aI0
aI0
aI1
aI0
aI0
aI0
aI0
aI0
aI0
asg43
g44
(g45
(I0
tp222
g47
tp223
Rp224
(I1
(I41
tp225
g54
I00
S'\x00\x00\x00\x00\x00\x00\x00\x00\x00\x00\x00\x00\x00\x00\x00\x00\x00\x00\x00\x00\x00\x00\x00\x00\x00\x00\x00\x00\x00\x00\x00\x00\x00\x00\x00\x00\x00\x00\x00\x00\x00\x00\x00\x00\x00\x00\x00\x00\x00\x00\x00\x00\x00\x00\x00\x00\x00\x00\x00\x00\x00\x00\x00\x00\x00\x00\x00\x00\x00\x00\x00\x00\x00\x00\x00\x00\x00\x00\x00\x00\x00\x00\x00\x00\x00\x00\x00\x00\x00\x00\x00\x00\x00\x00\x00\x00\x00\x00\x00\x00\x00\x00\x00\x00\x00\x00\x00\x00\x00\x00\x00\x00\x00\x00\x00\x00\x00\x00\x00\x00\x00\x00\x00\x00\x00\x00\x00\x00\x00\x00\x00\x00\x00\x00\x00\x00\x00\x00\x00\x00\x00\x00\x00\x00\x00\x00\x00\x00\x00\x00\x00\x00\x00\x00\x00\x00\x00\x00\x00\x00\x00\x00\x00\x00\x00\x00\x00\x00\x00\x00\x00\x00\x00\x00\x00\x00\x00\x00\x00\x00\x00\x00\x00\x00\x00\x00\x00\x00\x00\x00\x00\x00\x00\x00\x00\x00\x00\x00\x00\x00\x00\x00\x00\x00\x00\x00\x00\x00\x00\x00\x00\x00\x00\x00\x00\x00\x00\x00\x00\x00\x00\x00\x00\x00\x00\x00\x00\x00\x00\x00\x00\x00\x00\x00\x00\x00\x00\x00\x00\x00\x00\x00\x00\x00\x00\x00\x00\x00\x00\x00\x00\x00\x00\x00\x00\x00\x00\x00\x00\x00\x00\x00\x00\x00\x00\x00\x00\x00\x00\x00\x00\x00\x00\x00\x00\x00\x00\x00\x00\x00\x00\x00\x00\x00\x00\x00\x00\x00\x00\x00\x00\x00\x00\x00\x00\x00\x00\x00\x00\x00\x00\x00\x00\x00\x00\x00\x00\x00\x00\x00\x00\x00\x00\x00\x00\x00\x00\x00\x00\x00\x00\x00\x00\x00\x00\x00\x00\x00'
p226
tp227
bsg59
(lp228
(lp229
I12
aa(lp230
I16
aa(lp231
I7
aa(lp232
I8
aa(lp233
I4
aa(lp234
I1
aa(lp235
I16
aa(lp236
I17
aa(lp237
I2
aa(lp238
I4
aa(lp239
I6
aa(lp240
I4
aa(lp241
I4
aa(lp242
I2
aa(lp243
I17
aa(lp244
I2
aa(lp245
I1
aa(lp246
I0
aa(lp247
I15
aa(lp248
I0
aa(lp249
I15
aa(lp250
I4
aa(lp251
I11
aa(lp252
I2
aa(lp253
I15
aa(lp254
I4
aa(lp255
I2
aa(lp256
I15
aa(lp257
I15
aa(lp258
I3
aa(lp259
I15
aa(lp260
I4
aa(lp261
I4
aa(lp262
I11
aa(lp263
I8
aa(lp264
I2
aa(lp265
I17
aa(lp266
I17
aa(lp267
I2
aa(lp268
I1
aa(lp269
I8
aasg95
(lp270
S'Edit 3 26 08 Five Stars Replacement unit is working perfectly'
p271
aS"After a week of ownership I'll say this device does exactly what was expected and at a reasonable speed"
p272
aS'Hard drive could be a little faster during bootup but is responsive during general use'
p273
aS"Given the tiny keyboard don't expect this to be a laptop replacement rather a very portable computer for those not requiring lots of data entry"
p274
aS'I planned to use mine for couchtop browsing light email portable media entertainment and to perform mobile wireless surveys for my occupation'
p275
aS"By many accounts the previous gen Q1's and OQO's A110 cpu is underpowered so I chose the Q1UP with a Core Solo processor"
p276
aS'PROs Processor is well matched to the machine no speed demon but not slow either '
p277
aS'Programs start quickly DVD rips play without stutter'
p278
aS'Beautiful and bright screen web pages fit nicely width wise and buttons make scrolling easy'
p279
aS'Small fonts are extremely clear and readable though some may have trouble with this '
p280
aS'DVD rips and photos look great'
p281
aS'A remote would be nice'
p282
aS"Passive digitizer works well and unlike my other tablet's active screen I love being able to use my fingers reducing stylus usage somewhat"
p283
aS"Haven't really done any inking so can't comment on palm on the screen issues"
p284
aS"You can play Solitaire with a finger With it's PSP like shape it looks like it will be fun to play games"
p285
aS'Mouse can be switched to joystick mode with a button press'
p286
aS"Don't load Oblivion though its not meant for high end 3D games"
p287
aS'Rear camera quality 1'
p288
aS'3mp is surprisingly good at least as viewed from the screen'
p289
aS'Front facing camera 0'
p290
aS'3mp is of decent quality and more than adequate for video chat'
p291
aS'Split Qwerty thumb keyboard fine for short entry like URLs filenames and short emails'
p292
aS'Thank goodness this is the improved kb as anything less would be quite difficult'
p293
aS'Button size is similar to that of my Treo 700'
p294
aS"I wasn't expecting to get much typing done this way but its so much better than always having to do tablet entry"
p295
aS"Included is a program called 'Dialkeys' which throws a larger thumb board on the screen and is better for longer entries it does eat up some screen space"
p296
aS'Being left handed I like the mouse on the left'
p297
aS'Battery life seems good given this model comes with the extended battery'
p298
aS'Watched a 2 hour DVD rip with screen on full brightness and still had 3 hours of regular usage left'
p299
aS'Rated life is 7'
p300
aS'5 hours'
p301
aS'Comes with a USB cable for transferring files between computers'
p302
aS"Plug both ends in and Voila' a file manager like program appears on both machines allowing easy transfer of files"
p303
aS'No software installation necessary it just works'
p304
aS"CONs None really except for an annoying problem with my unit Update Unit replaced problem gone When picking up or otherwise handling the unit the 'Play Camera' program starts and takes a picture"
p305
aS'Should only happen when touching the shutter button'
p306
aS'Subsequent handling causes many pictures to be taken and after 5 minutes I might have 50 pics that need to be deleted'
p307
aS'No use killing the program as it will usually start up again'
p308
aS"The shutter button moves freely and isn't bound up so I don't understand why the slight case flexing causes it to take a picture"
p309
aS"Oddly it doesn't always happen but 75 of the time does"
p310
aS"I'm hoping its a defect with my particular unit as I plan to swap it for the same model"
p311
asg131
I18
sg132
I3
sba(ireviewModules
Review
p312
(dp313
g3
(lp314
(lp315
I0
aI0
aI0
aI0
aF10.035941069727292
aF3.2311545123441507
aI0
aF108.8394292376746
aI0
aI0
aI0
aI0
aF2.6298228480457744
aI0
aI0
aI0
aI0
aI0
aI0
aI0
aI0
aI0
aF18.84990601856784
aF4.517399562293441
aI0
aF78.65563830356923
aI0
aI0
aI0
aI0
aI0
aI0
aI0
aI0
aI0
aI0
aF0.010854932240854764
aI18
aI18
aa(lp316
F1.1175190688044354
aF1.1175190863825792
aF1.1175190986535066
aF1.1175190691279167
aF1.117519069040491
aF1.1175190687418637
aF1.1175190690051486
aF1.1175190766072542
aF1.117519073401341
aF1.1175190687418637
aF1.1175190687418637
aF1.1175190687418637
aF237.60945426744078
aF1.1175190807089581
aF1.1175190687684449
aF15.667582394680444
aF1.1175190872401293
aF1.1175190696697423
aI0
aI0
aI0
aI0
aF10.03577232120465
aF3.231154512346713
aI0
aF108.45806760089214
aI0
aI0
aI0
aI0
aF2.6391142398740577
aI0
aI0
aI0
aI0
aI0
aF0.9706050672080129
aI18
aI18
aa(lp317
F1.2034412794256828
aF1.203441297198856
aF1.203441309865001
aF1.203441281678375
aF1.2034412789899422
aF1.2034412789899398
aF1.2034412791747102
aF1.203441280603567
aF1.203441283799501
aF1.2034412789899398
aF1.2034412789899398
aF1.2034412789899398
aF1.203441334003829
aF1.2034412789899398
aF1.2034412790173774
aF945.6303455858919
aF1.2034413027571975
aF1.2034412789899398
aI0
aI0
aI0
aI0
aF10.035944050283277
aF3.231154512344106
aI0
aF108.84618261922836
aI0
aI0
aI0
aI0
aF2.629658899220714
aI0
aI0
aI0
aI0
aI0
aF0.9985487345432253
aI18
aI18
aa(lp318
F1.1175190690142434
aF56.781106250325216
aF1.1175190908866628
aF1.1175190704223825
aF1.1175190687418652
aF1.1175190687418641
aF1.1175190688573622
aF8.873048587242732
aF1.1175190721914545
aF1.117519068741865
aF1.1175190687418644
aF1.1175190687418648
aF8.257410336281762
aF1.117519068741864
aF1.1175190687615433
aF1.1175192994551373
aF1.1175190851699388
aF1.117519068741864
aF1.117519068804533
aF1.1175190862496478
aF1.1175190984281065
aF1.1175190691285177
aF1.1175190690411527
aF1.1175190687418637
aF1.1175190690057182
aF1.1175190766094458
aF1.1175190733662297
aF1.1175190687418637
aF1.1175190687418637
aF1.1175190687418637
aF236.1643465318132
aF1.117519080735573
aF1.1175190687682448
aF15.763453538880984
aF1.1175190871193998
aF1.1175190696718118
aF0.8506427265457934
aI18
aI18
aa(lp319
F8.25741140834866
aF8.257410527597374
aF1.117519068741864
aF1.1175190760544664
aF1.117519068741864
aF1.1175190687418648
aF1.117519068741864
aF8.25741124609214
aF1.117519068741864
aF1.117519068741867
aF1.1175190687418652
aF1.1175190687418664
aF1.1175190687418641
aF1.1175190687418641
aF1.117519286474751
aF8.257409517321785
aF1.117519068741864
aF1.117519068741864
aF1.2034412794256804
aF1.2034412971987523
aF1.2034413098648251
aF1.2034412816783597
aF1.203441278989942
aF1.2034412789899398
aF1.2034412791747093
aF1.203441280603558
aF1.2034412837994737
aF1.2034412789899398
aF1.2034412789899398
aF1.2034412789899398
aF1.2034413338405223
aF1.2034412789899398
aF1.2034412790173772
aF945.630345714583
aF1.2034413027570623
aF1.2034412789899398
aF0.5122821264138145
aI18
aI18
aa(lp320
F3.7413423718676415
aF3.7413415131665593
aI0
aI0
aI0
aI0
aI0
aF3.7413423170145603
aI0
aI0
aF3.7413423641196446
aF3.741342721330939
aF3.741342105906893
aI0
aI0
aF3.7413422374616196
aI0
aI0
aF1.1175190690131482
aF56.795187284387616
aF1.1175190908372699
aF1.1175190704156264
aF1.1175190687418652
aF1.1175190687418641
aF1.117519068856898
aF8.870849495834447
aF1.1175190721837724
aF1.117519068741865
aF1.1175190687418644
aF1.1175190687418646
aF8.257410963464569
aF1.117519068741864
aF1.1175190687614993
aF1.1175191173307042
aF1.1175190851258268
aF1.1175190687418637
aF0.4911991577659123
aI18
aI18
aa(lp321
F8.912853134879635
aI0
aI0
aI0
aF10.812741709800171
aI0
aI0
aI0
aI0
aI0
aF3.231154381220337
aF3.2311545725559823
aI0
aI0
aI0
aF9.81225575336968
aI0
aI0
aF8.25741140682525
aF8.257410441341138
aF1.117519068741864
aF1.1175190864328872
aF1.117519068741864
aF1.1175190687418646
aF1.117519068741864
aF8.257411244439437
aF1.117519068741864
aF1.117519068741867
aF1.1175190687418652
aF1.1175190687418664
aF1.1175190687418641
aF1.117519068741864
aF3.4912153209909897
aF2.6431524720599016
aF1.117519068741864
aF1.117519068741864
aF0.5667376407549434
aI18
aI18
aa(lp322
F7.169163425001179
aI0
aF2.8518316310432974
aI0
aF8.53219575136169
aI0
aI0
aI0
aI0
aI0
aF7.838661938598555
aF2.8797338341544814
aI0
aI0
aI0
aF2.8718892443541373
aI0
aI0
aF3.741342371867792
aF3.7413415131691803
aI0
aI0
aI0
aI0
aI0
aF3.7413423170146634
aI0
aI0
aF3.741342364120428
aF3.7413427213312644
aF3.7413421051533926
aI0
aI0
aF3.7413422375222996
aI0
aI0
aF0.4589551243789375
aI18
aI18
aa(lp323
F49.457809454247275
aI0
aF3.252477829229971
aF2.5869340343932103
aF2.436319484979591
aF2.4111252439896216
aI0
aI0
aI0
aI0
aF2.411749086652626
aI0
aI0
aI0
aI0
aF2.245202968021874
aI0
aI0
aF8.91282334452379
aI0
aI0
aI0
aF10.812778170702954
aI0
aI0
aI0
aI0
aI0
aF3.231154381211987
aF3.231154572554712
aI0
aI0
aI0
aF9.812255484031585
aI0
aI0
aF0.43706427628282996
aI18
aI18
aa(lp324
F83.02021261387543
aI0
aF2.8210439306817268
aF2.2526908008532645
aI0
aF4.866520449932818
aF2.2791524400911767
aI0
aI0
aI0
aF2.253940680760533
aI0
aI0
aI0
aI0
aI0
aI0
aI0
aF6.961976355029897
aI0
aF2.851860238296196
aI0
aF3.6923630730058368
aI0
aI0
aI0
aI0
aI0
aF7.838662246998021
aF2.879733903279808
aI0
aI0
aI0
aI0
aF6.833695918802166
aI0
aF0.4695798737249286
aI18
aI18
aa(lp325
F16.879585680680233
aI0
aF6.703106680121716
aF2.845397436690442
aI0
aF3.9368086658167956
aF2.0705395928683816
aI0
aF2.7630368483653993
aI0
aI0
aF2.0212249544861307
aI0
aI0
aI0
aI0
aI0
aI0
aF49.44168994726916
aI0
aF3.253534910253732
aF2.585459376617946
aF2.4363250304621378
aF2.4111237516910533
aI0
aI0
aI0
aI0
aF2.411746757826937
aI0
aI0
aI0
aI0
aF2.246484298451047
aI0
aI0
aF0.08855057328540505
aI18
aI18
aa(lp326
F5.963061756255835
aI0
aF13.892513545899345
aI0
aF2.5993983842760637
aF2.6822942341390346
aF2.658681215067477
aI0
aF2.4678797188228043
aI0
aI0
aF3.492662842043491
aI0
aI0
aI0
aI0
aI0
aI0
aF83.1089975831848
aI0
aF2.8180380709032606
aF2.2526926994056278
aI0
aF4.866550919788445
aF2.279121283317304
aI0
aI0
aI0
aF2.253949219984153
aI0
aI0
aI0
aI0
aI0
aI0
aI0
aF0.5942035385539264
aI18
aI18
aa(lp327
I0
aI0
aF44.20360570955158
aI0
aF7.014342637552484
aI0
aI0
aI0
aF2.6637044575333366
aF4.019566346669843
aI0
aF3.4410584929150407
aI0
aI0
aI0
aI0
aI0
aI0
aF16.880497347583532
aI0
aF6.714564687962141
aF2.8424603188500566
aI0
aF3.9368086659653394
aF2.070547397379781
aI0
aF2.7610125365272675
aI0
aI0
aF2.0212249545584884
aI0
aI0
aI0
aI0
aI0
aI0
aF0.6415541424065392
aI18
aI18
aa(lp328
I0
aI0
aF8.02006659676174
aI0
aF23.632878016424257
aI0
aI0
aI0
aF11.38896813781487
aF5.03140107350355
aI0
aI0
aI0
aI0
aI0
aI0
aI0
aI0
aF5.961427492258412
aI0
aF13.891451366601908
aI0
aF2.599628368143955
aF2.6824456788258404
aF2.659013393050897
aI0
aF2.4678793707278834
aI0
aI0
aF3.4929451961447584
aI0
aI0
aI0
aI0
aI0
aI0
aF0.559729739058797
aI18
aI18
aa(lp329
I0
aI0
aF7.819721231962647
aI0
aF15.25590870420442
aI0
aI0
aI0
aF31.423337569492563
aF1.934254969668524
aI0
aF1.934254963674263
aI0
aI0
aI0
aI0
aI0
aI0
aI0
aI0
aF44.20461497944781
aI0
aF7.01428267721537
aI0
aI0
aI0
aF2.6637056664964125
aF4.020446487262999
aI0
aF3.440254488172238
aI0
aI0
aI0
aI0
aI0
aI0
aF0.6601628504542718
aI18
aI18
aa(lp330
I0
aI0
aF11.301000924080437
aI0
aF10.096379028487023
aI0
aI0
aI0
aF52.11266515854754
aI0
aI0
aF2.125417499194892
aI0
aI0
aI0
aI0
aI0
aI0
aI0
aI0
aF8.009481243011326
aI0
aF23.644681535936417
aI0
aI0
aI0
aF11.396080755723826
aF5.0323927519940685
aI0
aI0
aI0
aI0
aI0
aI0
aI0
aI0
aF0.39081575719690353
aI18
aI18
aa(lp331
I0
aI0
aF9.002792461507644
aI0
aF3.3396927748116987
aI0
aF8.21399090597124
aI0
aF5.602935583085291
aI0
aI0
aF2.6106414726829343
aI0
aF3.326099136399507
aI0
aI0
aI0
aI0
aI0
aI0
aF7.819623635760828
aI0
aF15.256194773086936
aI0
aI0
aI0
aF31.42314053573295
aF1.9342549696684912
aI0
aF1.934254963674261
aI0
aI0
aI0
aI0
aI0
aI0
aF0.417143373724306
aI18
aI18
aa(lp332
I0
aF5.867434831788448
aF2.754271500304819
aF111.04647289522545
aI0
aI0
aF2.7898816311965238
aI0
aI0
aI0
aI0
aF2.4100069616942044
aI0
aI0
aI0
aI0
aI0
aI0
aI0
aI0
aF11.301395266896483
aI0
aF10.096043058033876
aI0
aI0
aI0
aF52.1125808927813
aI0
aI0
aF2.125417499194956
aI0
aI0
aI0
aI0
aI0
aI0
aF0.9940032497970198
aI18
aI18
aa(lp333
I0
aI0
aI0
aF34.44076805022264
aI0
aI0
aF2.3585396862370143
aI0
aI0
aI0
aI0
aF1.60818259768134
aI0
aF13.363356495590063
aI0
aI0
aF7.532464034593616
aI0
aI0
aI0
aF9.001896693881752
aI0
aF3.340392691645137
aI0
aF8.20566806566081
aI0
aF5.602348380082989
aI0
aI0
aF2.610641472697183
aI0
aF3.3294552799869854
aI0
aI0
aI0
aI0
aF0.8754618173936792
aI18
aI18
aa(lp334
F1.9638739744583833
aF30.30811873694269
aI0
aF17.453753668004307
aI0
aI0
aI0
aF13.039711745368987
aI0
aI0
aI0
aI0
aI0
aI0
aI0
aI0
aI0
aI0
aI0
aF5.868774030493507
aF2.754354282741488
aF111.01387510273152
aI0
aI0
aF2.7899801767391157
aI0
aI0
aI0
aI0
aF2.4100069616894184
aI0
aI0
aI0
aI0
aI0
aI0
aF0.49132645301624456
aI18
aI18
aa(lp335
F2.4636030173354797
aF68.46688390395289
aI0
aI0
aI0
aI0
aI0
aF65.2078869979133
aI0
aI0
aI0
aI0
aI0
aI0
aI0
aI0
aI0
aI0
aI0
aI0
aI0
aF33.614698408033945
aI0
aI0
aF2.3565410137352076
aI0
aI0
aI0
aI0
aI0
aI0
aF12.860019641577892
aI0
aI0
aF12.40578405942897
aI0
aF1.0
aI18
aI18
aa(lp336
F2.6884004990692776
aF47.220814610207036
aI0
aI0
aI0
aI0
aI0
aF14.319694163130853
aI0
aI0
aI0
aI0
aF5.974570888309473
aI0
aI0
aI0
aI0
aI0
aF1.963875394142834
aF30.308824839449105
aI0
aF17.452784639419786
aI0
aI0
aI0
aF13.040122518698118
aI0
aI0
aI0
aI0
aI0
aI0
aI0
aI0
aI0
aI0
aF0.12757640999581188
aI18
aI18
aa(lp337
I0
aI0
aF11.817332522828375
aI0
aI0
aI0
aI0
aF42.77315900922381
aI0
aI0
aI0
aI0
aF17.263524933348105
aI0
aI0
aI0
aI0
aI0
aF2.4636025495306946
aF68.49697469310324
aI0
aI0
aI0
aI0
aI0
aF65.17925306592446
aI0
aI0
aI0
aI0
aI0
aI0
aI0
aI0
aI0
aI0
aF0.3809675243791305
aI18
aI18
aa(lp338
I0
aI0
aF5.80813184207344
aI0
aI0
aI0
aI0
aF7.556239418643632
aI0
aI0
aI0
aI0
aF125.145668717953
aI0
aI0
aI0
aI0
aI0
aF2.688298644936158
aF47.27885129954845
aI0
aI0
aI0
aI0
aI0
aF14.300104129131599
aI0
aI0
aI0
aI0
aF5.975637910475621
aI0
aI0
aI0
aI0
aI0
aF0.8631396248879506
aI18
aI18
aa(lp339
I0
aF3.107300222066689
aF2.6106407419859803
aI0
aF8.425870054525236
aI0
aI0
aF2.741141326266348
aF2.6106415026475487
aI0
aI0
aI0
aI0
aF9.896897736963977
aF2.610641628527256
aI0
aI0
aI0
aI0
aI0
aF11.81734607860482
aI0
aI0
aI0
aI0
aF42.772353259069554
aI0
aI0
aI0
aI0
aF17.263830341966205
aI0
aI0
aI0
aI0
aI0
aF0.7835890863180509
aI18
aI18
aa(lp340
I0
aF2.0113856058580026
aI0
aI0
aF54.33811368283235
aF1.9342549721323958
aI0
aF2.3995886199865613
aF2.2147877192123877
aI0
aI0
aI0
aI0
aF2.8670216132549546
aF1.9342549777036233
aI0
aI0
aF2.4981638189380804
aI0
aI0
aF5.808131841996345
aI0
aI0
aI0
aI0
aF7.554406050068535
aI0
aI0
aI0
aI0
aF125.1760401533578
aI0
aI0
aI0
aI0
aI0
aF0.9973589437837301
aI18
aI18
aa(lp341
I0
aF1.905276854310049
aI0
aI0
aF49.73718220380613
aF1.902856774860923
aI0
aF3.049738852513859
aF2.9837504387657625
aI0
aI0
aI0
aI0
aF2.3149881177363
aF1.8712666794963815
aI0
aI0
aF2.313146546836415
aI0
aF3.1049456464017147
aF2.610640742142965
aI0
aF8.435823577063163
aI0
aI0
aF2.7410588800584494
aF2.610641502654326
aI0
aI0
aI0
aI0
aF9.893014097906951
aF2.6106416285479757
aI0
aI0
aI0
aF0.34862697328611214
aI18
aI18
aa(lp342
I0
aI0
aI0
aI0
aF46.52881138452988
aF3.020905842534445
aI0
aF30.81054710373991
aI0
aI0
aI0
aI0
aI0
aI0
aI0
aI0
aI0
aF2.66010676691653
aI0
aF2.011371741191815
aI0
aI0
aF54.34886702645937
aF1.9342549721385849
aI0
aF2.3992811070814426
aF2.214701341876852
aI0
aI0
aI0
aI0
aF2.867532049971212
aF1.934254977708735
aI0
aI0
aF2.4976596303601135
aF0.1452582121609206
aI18
aI18
aa(lp343
I0
aF4.65887564663903
aF2.556843171021705
aI0
aF3.8573330672179047
aI0
aF3.6831419388023465
aF3.357740672336913
aI0
aI0
aI0
aF3.765715913724706
aI0
aF2.43502248385021
aF2.6606886444461963
aI0
aI0
aI0
aI0
aF1.9055256432072862
aI0
aI0
aF49.75130964508026
aF1.9029100828278422
aI0
aF3.042425033738322
aF2.9904859040490663
aI0
aI0
aI0
aI0
aF2.3139661275510064
aF1.8713101594946635
aI0
aI0
aF2.313428683364757
aF0.546961435134161
aI18
aI18
aa(lp344
I0
aF18.921197480904322
aF2.5428158569417505
aI0
aF2.416715902931412
aI0
aF2.604429337579121
aI0
aI0
aI0
aI0
aF3.3255397867288052
aI0
aF1.8463433861098724
aF2.4590042925462923
aF3.1420511977950505
aI0
aI0
aI0
aI0
aI0
aI0
aF46.52131086711022
aF3.0207745135931083
aI0
aF30.81695049198359
aI0
aI0
aI0
aI0
aI0
aI0
aI0
aI0
aI0
aF2.6600984658743294
aF0.9004504120758564
aI18
aI18
aa(lp345
I0
aF19.556398443045545
aF2.1049779423060455
aI0
aI0
aI0
aF2.0932596781340496
aI0
aI0
aI0
aI0
aF2.5357660171307206
aI0
aI0
aF2.0626014184104413
aF6.9905588442005095
aF4.771693309371836
aI0
aI0
aF4.659461244226387
aF2.5568456876997976
aI0
aF3.859198745381107
aI0
aF3.6855632640087825
aF3.3532844396403116
aI0
aI0
aI0
aF3.76592432062669
aI0
aF2.435025822550398
aF2.6606990324670905
aI0
aI0
aI0
aF0.43823422115942845
aI18
aI18
aa(lp346
I0
aF15.415909042101514
aI0
aI0
aF2.9122509724226435
aI0
aF2.569954147720793
aI0
aI0
aI0
aI0
aI0
aF8.82753430724466
aI0
aI0
aF11.84680201350433
aI0
aI0
aI0
aF18.904101968554787
aF2.5441304244799157
aI0
aF2.4163134327154436
aI0
aF2.6039469191808275
aI0
aI0
aI0
aI0
aF3.3260047573070213
aI0
aF1.839231127838055
aF2.459042508897836
aF3.1560425269042214
aI0
aI0
aF0.217560830408701
aI18
aI18
aa(lp347
I0
aI0
aI0
aI0
aF41.665113870525
aF2.410006948244861
aI0
aI0
aI0
aI0
aI0
aI0
aF20.556146780643324
aI0
aI0
aF5.5811675356328925
aI0
aI0
aI0
aF17.288449055413924
aF2.1349372816361747
aI0
aF4.365940891174496
aI0
aF2.0914507207595037
aI0
aI0
aI0
aI0
aF2.542798606863238
aI0
aI0
aF2.0635660007271053
aF8.501028404867935
aI0
aI0
aF0.7582244596055662
aI18
aI18
aa(lp348
I0
aI0
aI0
aI0
aF30.668915975437077
aF3.23115451114397
aI0
aI0
aI0
aI0
aI0
aI0
aF88.05704634943228
aI0
aI0
aI0
aI0
aI0
aI0
aF15.418180085943838
aI0
aI0
aF2.911710647627537
aI0
aF2.5699170209912623
aI0
aI0
aI0
aI0
aI0
aF8.832691949914475
aI0
aI0
aF11.840508230339307
aI0
aI0
aF0.5717920008523226
aI18
aI18
aa(lp349
I0
aI0
aI0
aI0
aF162.81140705250758
aF5.808133496087778
aI0
aI0
aI0
aI0
aI0
aI0
aI0
aF5.808133373277633
aI0
aI0
aI0
aI0
aI0
aI0
aI0
aI0
aF41.68708563712937
aF2.410006948248167
aI0
aI0
aI0
aI0
aI0
aI0
aF20.57427075893327
aI0
aI0
aF5.573312015467052
aI0
aI0
aF0.11011873007963169
aI18
aI18
aasg39
S'I bought this laptop from Staples on Black Friday when they had it for $599, which I thought was a steal. I am very happy with the purchase.*|*|* The 17.3" screen is great and was a must-have for me. I have had a 17" laptop for a while and I wasn\'t going back! Obviously this makes it not quite as portable, but this sits at home most of the time and goes on trips with me. A 17" laptop is also a bit more difficult to find a carrying case for.*|*|* The fingerprint scanner was easy to set up and works very well every time I use it.Having a blu-ray drive as well as HDMI is fantastic, as I can use this as a blu-ray player at home.*|*|* The speakers aren\'t quite as loud as I hoped, but they\'re certainly not quiet. I\'ve just heard a lot of talk about Beats Audio and was hoping for a little more volume. It\'s very clear at full volume with 0 static sound, so that\'s a plus.*|*|* The keyboard is smooth and easy to type on and the mouse works well - as expected.*|*|* One thing I\'m not impressed with - multitouch. I have used a Mac multitouch mouse and they work very smoothly. This "multitouch" mouse is very spotty to the point of being almost useless. Do not consider the multitouch mouse a buying point - it rarely works properly. Even when it does work, the scrolling is entirely too fast to be useful.The overall design is very nice in my opinion.*|*|* I\'ve read a few places where people complain of the silver rim being cheap looking, and while it\'s not solid and unbreakable I think it looks good and won\'t be easy to break unless you drop the laptop or are very rough on it.*|*|* EDIT 9/9/2012: After some months of use, I was proven wrong. The plastic around the speakers on the front of the laptop do break. It\'s just a thin piece of plastic that broke off on both sides. Still, I\'m overall happy with the computer and would buy it again.*|*|* The HD webcam quality is OK. I don\'t think I\'d called it HD but probably a step under HD.*|*|* The RAM is very easy to upgrade and the model I got had 1 4GB DDR3 stick with 1 empty slot - a cheaper upgrade than if it had 2 x 2GB sticks. There is a spot for a secondary hard drive, but I was disappointed to see that it did not include a cable to connect the 2nd hard drive to the laptop. This will have to be purchased separately, and I was able to find it online for $32 shipped.*|*|* This laptop runs very cool. Obviously I always take care not to impede airflow from the fan (don\'t put it on a soft blanket, bed, carpet, etc), but this is probably the coolest running laptop I\'ve ever owned.The 9-cell battery has excellent life, but does stick out the bottom of the laptop - about the only styling cue of this laptop that I don\'t like. It is somewhat functional, though - allowing for more airflow to cool the laptop.*|*|* Overall, a great buy and I\'m very happy with the purchase. It\'s a speedy, sharp-looking laptop which I suspect will give me years of computing.'
p350
sg41
(lp351
I0
aI0
aI1
aI0
aI0
aI0
aI0
aI1
aI0
aI1
aI0
aI0
aI1
aI1
aI0
aI0
aI0
aI0
aI0
aI1
aI1
aI0
aI0
aI0
aI1
aI0
aI1
aI0
aI0
aI1
aI0
aI0
aI0
aI1
aI0
asg43
g44
(g45
(I0
tp352
g47
tp353
Rp354
(I1
(I35
tp355
g54
I00
S'\x00\x00\x00\x00\x00\x00\x00\x00\x00\x00\x00\x00\x00\x00\x00\x00\x00\x00\x00\x00\x00\x00\x00\x00\x00\x00\x00\x00\x00\x00\x00\x00\x00\x00\x00\x00\x00\x00\x00\x00\x00\x00\x00\x00\x00\x00\x00\x00\x00\x00\x00\x00\x00\x00\x00\x00\x00\x00\x00\x00\x00\x00\x00\x00\x00\x00\x00\x00\x00\x00\x00\x00\x00\x00\x00\x00\x00\x00\x00\x00\x00\x00\x00\x00\x00\x00\x00\x00\x00\x00\x00\x00\x00\x00\x00\x00\x00\x00\x00\x00\x00\x00\x00\x00\x00\x00\x00\x00\x00\x00\x00\x00\x00\x00\x00\x00\x00\x00\x00\x00\x00\x00\x00\x00\x00\x00\x00\x00\x00\x00\x00\x00\x00\x00\x00\x00\x00\x00\x00\x00\x00\x00\x00\x00\x00\x00\x00\x00\x00\x00\x00\x00\x00\x00\x00\x00\x00\x00\x00\x00\x00\x00\x00\x00\x00\x00\x00\x00\x00\x00\x00\x00\x00\x00\x00\x00\x00\x00\x00\x00\x00\x00\x00\x00\x00\x00\x00\x00\x00\x00\x00\x00\x00\x00\x00\x00\x00\x00\x00\x00\x00\x00\x00\x00\x00\x00\x00\x00\x00\x00\x00\x00\x00\x00\x00\x00\x00\x00\x00\x00\x00\x00\x00\x00\x00\x00\x00\x00\x00\x00\x00\x00\x00\x00\x00\x00\x00\x00\x00\x00\x00\x00\x00\x00\x00\x00\x00\x00\x00\x00\x00\x00\x00\x00\x00\x00\x00\x00\x00\x00\x00\x00\x00\x00\x00\x00\x00\x00\x00\x00\x00\x00\x00\x00\x00\x00\x00\x00\x00\x00'
p356
tp357
bsg59
(lp358
(lp359
I7
aa(lp360
I12
aa(lp361
I0
aI1
aI2
aI3
aI4
aI5
aI6
aI7
aI8
aI9
aI10
aI11
aI12
aI13
aI14
aI15
aI16
aI17
aa(lp362
I15
aa(lp363
I0
aI1
aI2
aI3
aI4
aI5
aI6
aI7
aI8
aI9
aI10
aI11
aI12
aI13
aI14
aI15
aI16
aI17
aa(lp364
I7
aa(lp365
I0
aa(lp366
I11
aa(lp367
I4
aa(lp368
I10
aa(lp369
I0
aa(lp370
I0
aa(lp371
I2
aa(lp372
I4
aa(lp373
I4
aa(lp374
I8
aa(lp375
I8
aa(lp376
I2
aa(lp377
I6
aa(lp378
I3
aa(lp379
I7
aa(lp380
I1
aa(lp381
I1
aa(lp382
I12
aa(lp383
I2
aa(lp384
I7
aa(lp385
I4
aa(lp386
I4
aa(lp387
I7
aa(lp388
I0
aI1
aI2
aI3
aI4
aI5
aI6
aI7
aI8
aI9
aI10
aI11
aI12
aI13
aI14
aI15
aI16
aI17
aa(lp389
I1
aa(lp390
I1
aa(lp391
I4
aa(lp392
I12
aa(lp393
I4
aasg95
(lp394
S'I bought this laptop from Staples on Black Friday when they had it for 599 which I thought was a steal'
p395
aS'I am very happy with the purchase'
p396
aS'The 17'
p397
aS'3 screen is great and was a must have for me'
p398
aS"I have had a 17 laptop for a while and I wasn't going back"
p399
aS'Obviously this makes it not quite as portable but this sits at home most of the time and goes on trips with me'
p400
aS'A 17 laptop is also a bit more difficult to find a carrying case for'
p401
aS'The fingerprint scanner was easy to set up and works very well every time I use it'
p402
aS'Having a blu ray drive as well as HDMI is fantastic as I can use this as a blu ray player at home'
p403
aS"The speakers aren't quite as loud as I hoped but they're certainly not quiet"
p404
aS"I've just heard a lot of talk about Beats Audio and was hoping for a little more volume"
p405
aS"It's very clear at full volume with 0 static sound so that's a plus"
p406
aS'The keyboard is smooth and easy to type on and the mouse works well as expected'
p407
aS"One thing I'm not impressed with multitouch"
p408
aS'I have used a Mac multitouch mouse and they work very smoothly'
p409
aS'This multitouch mouse is very spotty to the point of being almost useless'
p410
aS'Do not consider the multitouch mouse a buying point it rarely works properly'
p411
aS'Even when it does work the scrolling is entirely too fast to be useful'
p412
aS'The overall design is very nice in my opinion'
p413
aS"I've read a few places where people complain of the silver rim being cheap looking and while it's not solid and unbreakable I think it looks good and won't be easy to break unless you drop the laptop or are very rough on it"
p414
aS'EDIT 9 9 2012 After some months of use I was proven wrong'
p415
aS'The plastic around the speakers on the front of the laptop do break'
p416
aS"It's just a thin piece of plastic that broke off on both sides"
p417
aS"Still I'm overall happy with the computer and would buy it again"
p418
aS'The HD webcam quality is OK'
p419
aS" I don't think I'd called it HD but probably a step under HD"
p420
aS'The RAM is very easy to upgrade and the model I got had 1 4GB DDR3 stick with 1 empty slot a cheaper upgrade than if it had 2 x 2GB sticks'
p421
aS'There is a spot for a secondary hard drive but I was disappointed to see that it did not include a cable to connect the 2nd hard drive to the laptop'
p422
aS'This will have to be purchased separately and I was able to find it online for 32 shipped'
p423
aS'This laptop runs very cool'
p424
aS"Obviously I always take care not to impede airflow from the fan don't put it on a soft blanket bed carpet etc but this is probably the coolest running laptop I've ever owned"
p425
aS"The 9 cell battery has excellent life but does stick out the bottom of the laptop about the only styling cue of this laptop that I don't like"
p426
aS'It is somewhat functional though allowing for more airflow to cool the laptop'
p427
aS"Overall a great buy and I'm very happy with the purchase"
p428
aS"It's a speedy sharp looking laptop which I suspect will give me years of computing"
p429
asg131
I18
sg132
I21
sba(ireviewModules
Review
p430
(dp431
g3
(lp432
(lp433
I0
aI0
aI0
aI0
aF12.235883004357913
aI0
aF72.20737029323318
aF3.711224857185625
aI0
aI0
aI0
aI0
aI0
aI0
aF2.03760914075627
aI0
aI0
aF2.0369720235346875
aF1.1489964266411452
aF1.1489964266411452
aF1.1489964266411452
aF1.148996426999174
aF1.148996426641145
aF1.1489964266411452
aF87.84742693243933
aF27.171704252732813
aF1.1489964348451613
aF1.1489964266411452
aF1.1489964358194724
aF1.1489964266411452
aF1.148996442095719
aF1.1489965079876303
aF1.1489964266411452
aF1.1489964266411452
aF1.1489964318473296
aF1.148996428570608
aF0.043489033354727424
aI18
aI18
aa(lp434
I0
aI0
aF2.3323408717043734
aI0
aF21.018947842568778
aI0
aF58.18966190598741
aI0
aI0
aI0
aI0
aI0
aI0
aI0
aF2.145344801052363
aI0
aI0
aF2.148612343611688
aI0
aI0
aI0
aI0
aF12.66691857679956
aI0
aF60.14075287450708
aF2.6721438370785706
aI0
aI0
aI0
aI0
aI0
aI0
aF2.426083803741897
aI0
aI0
aF2.4431965143938457
aF0.011280648463495191
aI18
aI18
aa(lp435
I0
aI0
aF3.7413422386259914
aI0
aF159.08589147286344
aI0
aI0
aI0
aI0
aI0
aI0
aI0
aI0
aF13.058567201923758
aI0
aI0
aI0
aI0
aI0
aI0
aI0
aI0
aF12.238932449887352
aI0
aF72.21962726800739
aF3.7096739207201783
aI0
aI0
aI0
aI0
aI0
aI0
aF2.0376070408032394
aI0
aI0
aF2.0369722256085807
aF0.8338611304917012
aI18
aI18
aa(lp436
F2.4100068162270123
aI0
aF7.053127683889202
aI0
aF183.63182397038483
aI0
aI0
aI0
aI0
aI0
aI0
aI0
aI0
aF3.690707927790459
aI0
aI0
aI0
aI0
aI0
aI0
aF2.33235004216762
aI0
aF21.01847171523249
aI0
aF58.19077632176084
aI0
aI0
aI0
aI0
aI0
aI0
aI0
aF2.14534454424629
aI0
aI0
aF2.1486116756805824
aF0.6598342873199301
aI18
aI18
aa(lp437
F2.2523311961715273
aI0
aI0
aI0
aF1572.5330784185107
aI0
aI0
aI0
aI0
aI0
aI0
aI0
aI0
aI0
aI0
aI0
aF3.2758109740805432
aI0
aI0
aI0
aF3.7413422385983925
aI0
aF159.08591370973903
aI0
aI0
aI0
aI0
aI0
aI0
aI0
aI0
aF13.058567201917088
aI0
aI0
aI0
aI0
aF0.0036288853566678325
aI18
aI18
aa(lp438
F1.8623085394195051
aF3.383306293918925
aF7.24699891821389
aI0
aF40.49178822071798
aI0
aI0
aF1.9024134356656783
aI0
aF1.8467948302672763
aI0
aI0
aI0
aF2.366923469212244
aI0
aI0
aI0
aI0
aF2.410006816207919
aI0
aF7.061178976160825
aI0
aF183.49615231903698
aI0
aI0
aI0
aI0
aI0
aI0
aI0
aI0
aF3.6892254008887613
aI0
aI0
aI0
aI0
aF0.016106585376281846
aI18
aI18
aa(lp439
I0
aF6.867504237321279
aI0
aF2.5920708011127696
aF4.50972239307032
aI0
aF4.596844466991823
aF2.7086285858796586
aI0
aF1.639986195394904
aI0
aI0
aI0
aF2.036527946853513
aI0
aF2.9504463641139536
aI0
aF1.7624556790421844
aF2.2523311707494145
aF2.2875275545994986
aI0
aI0
aF1082.8869531623773
aI0
aI0
aI0
aI0
aI0
aI0
aI0
aI0
aI0
aF2.1703450230685672
aI0
aI0
aI0
aF0.589277333177447
aI18
aI18
aa(lp440
I0
aF2.6991524215641824
aI0
aF1.9116064341321077
aF2.411297036016529
aI0
aF12.948617268160847
aF3.3943640468759524
aI0
aF1.600679036840533
aF1.6361946590654637
aI0
aI0
aF2.556141478010591
aI0
aI0
aF2.9604929395234376
aF1.6605883596370452
aF1.8623085454685284
aF3.383285254067386
aF7.251123165161129
aI0
aF40.475687551816506
aI0
aI0
aF1.902412019209431
aI0
aF1.8467940331444461
aI0
aI0
aI0
aF2.3665357123276105
aI0
aI0
aI0
aI0
aF0.800919602811054
aI18
aI18
aa(lp441
I0
aI0
aI0
aF1.8219415570931654
aI0
aI0
aF35.42680178993374
aF3.659699657111291
aI0
aI0
aF1.5253512910053946
aI0
aI0
aF1.5714625672050608
aF1.528489205245777
aI0
aF3.1004720583191707
aF6.572929557315636
aI0
aF6.867172273395395
aI0
aF2.5917030036308875
aF4.509451606703969
aI0
aF4.593780291304098
aF2.709290805714324
aI0
aF1.6399869622583412
aI0
aI0
aI0
aF2.036048341720228
aI0
aF2.9529714273035403
aI0
aF1.7625477563354555
aF0.5219093722572067
aI18
aI18
aa(lp442
I0
aF2.7639218112483452
aI0
aI0
aI0
aF2.2047152076857244
aF44.275481034162766
aI0
aI0
aI0
aF1.5007769449031478
aI0
aI0
aI0
aF2.2051792899058817
aI0
aF2.9601671509694243
aF6.587933746321224
aI0
aF2.699639877559219
aI0
aF1.9116647715184751
aF2.411351311713706
aI0
aF12.947221283004675
aF3.3938960637423645
aI0
aF1.6006789779271684
aF1.6361976885585885
aI0
aI0
aF2.556140379750102
aI0
aI0
aF2.9605064716016125
aF1.6605985461640498
aF0.09671221816319286
aI18
aI18
aa(lp443
F1.4774568227288438
aF4.453680663185379
aI0
aI0
aF3.966866729566277
aF2.0560545215308803
aF22.537170116425415
aI0
aI0
aI0
aI0
aI0
aI0
aI0
aF2.08414226619172
aI0
aI0
aF7.024500817187456
aI0
aI0
aI0
aF1.8222376858020337
aI0
aI0
aF35.41897584653539
aF3.659903155067037
aI0
aI0
aF1.525351291614005
aI0
aI0
aF1.571473778224322
aF1.5284903014914104
aI0
aF3.1005618470585996
aF6.572706034268739
aF0.054411119409058184
aI18
aI18
aa(lp444
F1.5224898663150803
aF3.366329728180044
aF5.356185458497051
aI0
aF8.77572350998095
aF2.1732729001978286
aF6.989748216527342
aI0
aI0
aI0
aI0
aF3.2388333579817195
aI0
aI0
aF1.5008346532405945
aI0
aI0
aI0
aI0
aF2.7646016513781757
aI0
aI0
aI0
aF2.204715207827998
aF44.27203253672663
aI0
aI0
aI0
aF1.5007769449613633
aI0
aI0
aI0
aF2.205179370910918
aI0
aF2.959126506010318
aF6.589142911470394
aF0.4678402608745649
aI18
aI18
aa(lp445
F1.8606298914409687
aF2.3173555296689616
aF17.45346029733149
aI0
aF31.718443376259035
aI0
aI0
aI0
aI0
aI0
aI0
aF6.033850512697319
aI0
aI0
aI0
aI0
aI0
aI0
aF1.4774568226782094
aF4.453497510247883
aI0
aI0
aF3.9667674018553742
aF2.0560545216012107
aF22.535993241680213
aI0
aI0
aI0
aI0
aI0
aI0
aI0
aF2.084142326200103
aI0
aI0
aF7.025332260267408
aF0.846469653795612
aI18
aI18
aa(lp446
I0
aF6.121602156990908
aF14.718767993593996
aI0
aF5.133425218699741
aI0
aF1.9701202746366413
aI0
aI0
aI0
aI0
aF7.667853973999701
aI0
aI0
aF2.0212250231987414
aI0
aI0
aI0
aF1.5224898628860426
aF3.3658217836207602
aF5.356749231137293
aI0
aF8.77612413809755
aF2.173272905092916
aF6.9897482165279134
aI0
aI0
aI0
aI0
aF3.2388333580105844
aI0
aI0
aF1.5008346524119045
aI0
aI0
aI0
aF0.2669353381500087
aI18
aI18
aa(lp447
F20.28203681135754
aF2.3929124616649635
aF1.9342540226593472
aI0
aI0
aI0
aI0
aI0
aI0
aI0
aF2.2618761404261027
aI0
aI0
aI0
aF1.9342555383188373
aF4.041062555155778
aF9.058125177703724
aI0
aF1.8606298914442674
aF2.3196372636321647
aF17.44636779980495
aI0
aF31.700125084095415
aI0
aI0
aI0
aI0
aI0
aI0
aF6.033850512465319
aI0
aI0
aI0
aI0
aI0
aI0
aF0.9089156336760638
aI18
aI18
aa(lp448
F17.327863062214078
aF2.257487247172412
aI0
aI0
aI0
aI0
aF5.629022263077668
aI0
aI0
aI0
aF2.188803200639215
aI0
aI0
aI0
aF2.584582954008837
aI0
aF11.657040275986544
aI0
aI0
aF6.121840915142523
aF14.718802824343287
aI0
aF5.133179647822108
aI0
aF1.9701330224691078
aI0
aI0
aI0
aI0
aF7.667853973946209
aI0
aI0
aF2.021225023198577
aI0
aI0
aI0
aF0.9265239197443079
aI18
aI18
aa(lp449
F4.880314039019791
aF2.904693530672782
aF4.286043359682619
aI0
aF11.766636602913225
aI0
aI0
aI0
aF1.7409244551287368
aI0
aF1.8028759246069435
aI0
aI0
aI0
aF1.786755672498589
aF1.9900250100898447
aF2.1757796363089232
aI0
aF20.28205050695081
aF2.3929626226038683
aF1.9342540226236717
aI0
aI0
aI0
aI0
aI0
aI0
aI0
aF2.2619647564114755
aI0
aI0
aI0
aF1.9342555383114814
aF4.040764706732083
aF9.05824196988904
aI0
aF0.5480646359235044
aI18
aI18
aa(lp450
I0
aF5.7189383019513835
aF10.979992405818187
aI0
aF9.46188347477696
aI0
aI0
aI0
aF2.065913723032574
aF2.626543142458358
aI0
aI0
aI0
aI0
aF2.242411028699686
aI0
aI0
aF2.079512134177622
aF29.263434094058514
aF2.3118016748578776
aI0
aI0
aI0
aI0
aI0
aI0
aI0
aI0
aF2.184828971246704
aI0
aI0
aI0
aF2.2721634247696203
aF5.464315062842147
aF7.912617298004531
aI0
aF0.9636471902846597
aI18
aI18
aa(lp451
I0
aF18.358936335899386
aF2.0179419743718188
aF1.81102586834217
aF7.6670160485739824
aI0
aF1.8495216810994972
aI0
aF3.2441091386851593
aF1.743316431081654
aI0
aI0
aF1.7732151834353036
aI0
aF1.7744224752154143
aI0
aI0
aI0
aF4.878367411641307
aF2.904634835390822
aF4.289693193158054
aI0
aF11.765523486475537
aI0
aI0
aI0
aF1.7408797513747474
aI0
aF1.8028961541592028
aI0
aI0
aI0
aF1.7867098384418363
aF1.988581592174035
aF2.176711643903392
aI0
aF0.4584019697516284
aI18
aI18
aa(lp452
I0
aF51.25444216609925
aI0
aI0
aI0
aI0
aF3.040368996995538
aI0
aF2.8735711288260237
aF2.8735711731698816
aI0
aI0
aF2.873571116976503
aI0
aI0
aI0
aI0
aF3.0583803019916127
aI0
aF5.7399853133224195
aF10.865961842585419
aF2.083751795847745
aF9.462609792202993
aI0
aI0
aI0
aF2.0644483098975033
aF2.6374210545593693
aI0
aI0
aI0
aI0
aF2.245169259934058
aI0
aI0
aI0
aF0.6315285646495991
aI18
aI18
aa(lp453
I0
aF15.766949742936967
aF4.011618233737041
aI0
aI0
aI0
aF3.5955533554605195
aI0
aF2.7050943150063436
aI0
aI0
aF2.6106414776344784
aF2.9548424783984633
aI0
aI0
aI0
aF2.6630118935564715
aI0
aI0
aF18.362184029592
aF2.017608354569666
aF1.8110586096081065
aF7.666468257368655
aI0
aF1.8495333554720312
aI0
aF3.244219817895879
aF1.7433165073041945
aI0
aI0
aF1.7732236183005468
aI0
aF1.7744164400891553
aI0
aI0
aI0
aF0.12131833769812517
aI18
aI18
aa(lp454
I0
aI0
aF17.862080480964263
aI0
aF13.09174645224824
aI0
aI0
aI0
aI0
aI0
aI0
aF2.2523313152817575
aF2.854986233687578
aI0
aI0
aF3.332600549304778
aF2.6319673551844875
aI0
aI0
aF51.261311058623065
aI0
aI0
aI0
aI0
aF3.040370631527351
aI0
aF2.8735711288260735
aF2.873571173173693
aI0
aI0
aF2.8735711169764944
aI0
aI0
aI0
aI0
aF3.0579688423002027
aF0.9930502497418126
aI18
aI18
aa(lp455
I0
aI0
aF14.643394501629777
aI0
aF10.175180265851107
aI0
aI0
aI0
aI0
aI0
aI0
aF2.125417515708725
aF2.5306083687333176
aI0
aI0
aF2.9669982463623294
aF5.7539693627670045
aI0
aI0
aF15.766909008340617
aF4.02004328342875
aI0
aI0
aI0
aF3.5882715387799133
aI0
aF2.705048587841845
aI0
aI0
aF2.610641477647097
aF2.9546835889971583
aI0
aI0
aI0
aF2.6630187731301587
aI0
aF0.7417475750071238
aI18
aI18
aa(lp456
I0
aI0
aF3.2880374554831415
aI0
aF25.218296396327407
aI0
aI0
aI0
aI0
aI0
aI0
aI0
aF3.5743170639953243
aF2.5113494443172337
aI0
aF4.254243448464331
aF3.5714131303347907
aI0
aI0
aI0
aF17.86221870205336
aI0
aF13.092123121860105
aI0
aI0
aI0
aI0
aI0
aI0
aF2.252331315282202
aF2.85494342138121
aI0
aI0
aF3.3325057192509417
aF2.6319856265894463
aI0
aF0.298929782352201
aI18
aI18
aa(lp457
F1.3201927884341202
aF1.3201927884341202
aF1.3201927884341202
aF1.3201930472146177
aF1.3201927884352618
aF1.3201927884341202
aF1.3201927884341202
aF1.3201927884341202
aF1.3201927884341202
aF1.3201927884341202
aF1.3201927884341202
aF1.3201927884341202
aF1.3201927884341202
aF1.3201927884341202
aF1.3201927884341202
aF1.3201927884341202
aF195.93394394935416
aF1.3201927884341202
aI0
aI0
aF14.642432895202159
aI0
aF10.16944225745347
aI0
aI0
aI0
aI0
aI0
aI0
aF2.125417515695905
aF2.5306238379180503
aI0
aI0
aF2.968917113436487
aF5.753837661209242
aI0
aF0.6899065509090017
aI18
aI18
aasg39
S'I\'ve been looking for something like this for years to chronicle my motorcycle trips.I was loathe to give up saddlebag space to a full-size laptop and worried that the heat, dust and vibration of motorcycle travel would kill a laptop with a conventional hard disk drive.So I started out with travel journals, but I had to wait until I got home to blog my trip stories.*|*|* Then, five years ago, I tried blogging from the road with a Palm Treo 300. It was barely adequate. I stepped up to a Treo 600, and then the 700p, but even with the accessory fold-out keyboards, it was still a chore to write blog entries and manage my e-mail. And while the cameras have improved, they\'re still pretty bad.I miss the 3G connectivity with the Mini 9, but Wifi hotspots are becoming more plentiful and it\'s getting easier to find them, especially if you have the AT&T; deal with Starbucks or McDonald\'s.*|*|* The SSD (solid state drive) seems perfect for motorcycle travel, since it has no moving parts and is, therefore, less vulnerable to damage from vibration.The 1GB of RAM and 8GB of SSD capacity are plenty, assuming you don\'t junk the Mini 9 up with lots of software. And there isn\'t any reason to do that, considering that you can do all of your email, word processing, spreadsheets, calendars, and other office-type functions up in "the cloud" with Google Apps.*|*|* I found the Internet Explorer browser\'s menu bars took up too much screen real estate, so I installed Google\'s streamlined Chrome browser that lets me see more of the web pages at a glance. I also avoid loading up the SSD by using an 8GB SanDisk thumb drive as a D: drive.*|*|* I\'m not much for touchpads - the Mini 9\'s touchpad works fine, I\'m just not a touchpad guy - so I use a wireless optical mouse.*|*|* The built-in webcam is surprisingly good. I have yet to use it for a live conversation, but it shoots quite acceptable still photos. The SD card reader is perfect for importing images from a higher-quality digital camera.*|*|* The smaller keyboard takes a little getting used to. The apostrophe and quote marks and dash/underscore are not where my fingers expected to find them, but it doesn\'t take long to make the synaptic adjustment.*|*|* The Mini 9 is intelligently designed when it comes to upgrades. You can access its guts by removing two screws and a cover plate on the underside. As I said, it comes with 1GB of RAM. You can double that for about $30 and the conversion takes about 5 minutes.*|*|* Computer development being what it is, there are sure to be subsequent generations of netbooks with more speed, power and versatility. But for now, I think the Dell Inspiron Mini 9 is one of the best buys out there.'
p458
sg41
(lp459
I0
aI0
aI0
aI1
aI0
aI0
aI0
aI0
aI1
aI0
aI0
aI1
aI0
aI1
aI1
aI0
aI0
aI1
aI0
aI1
aI0
aI0
aI0
aI1
aI0
asg43
g44
(g45
(I0
tp460
g47
tp461
Rp462
(I1
(I25
tp463
g54
I00
S'\x00\x00\x00\x00\x00\x00\x00\x00\x00\x00\x00\x00\x00\x00\x00\x00\x00\x00\x00\x00\x00\x00\x00\x00\x00\x00\x00\x00\x00\x00\x00\x00\x00\x00\x00\x00\x00\x00\x00\x00\x00\x00\x00\x00\x00\x00\x00\x00\x00\x00\x00\x00\x00\x00\x00\x00\x00\x00\x00\x00\x00\x00\x00\x00\x00\x00\x00\x00\x00\x00\x00\x00\x00\x00\x00\x00\x00\x00\x00\x00\x00\x00\x00\x00\x00\x00\x00\x00\x00\x00\x00\x00\x00\x00\x00\x00\x00\x00\x00\x00\x00\x00\x00\x00\x00\x00\x00\x00\x00\x00\x00\x00\x00\x00\x00\x00\x00\x00\x00\x00\x00\x00\x00\x00\x00\x00\x00\x00\x00\x00\x00\x00\x00\x00\x00\x00\x00\x00\x00\x00\x00\x00\x00\x00\x00\x00\x00\x00\x00\x00\x00\x00\x00\x00\x00\x00\x00\x00\x00\x00\x00\x00\x00\x00\x00\x00\x00\x00\x00\x00\x00\x00\x00\x00\x00\x00\x00\x00\x00\x00\x00\x00\x00\x00\x00\x00\x00\x00\x00\x00\x00\x00\x00\x00\x00\x00\x00\x00\x00\x00'
p464
tp465
bsg59
(lp466
(lp467
I6
aa(lp468
I4
aa(lp469
I7
aa(lp470
I2
aa(lp471
I4
aa(lp472
I4
aa(lp473
I4
aa(lp474
I13
aa(lp475
I6
aa(lp476
I16
aa(lp477
I17
aa(lp478
I6
aa(lp479
I4
aa(lp480
I11
aa(lp481
I15
aa(lp482
I1
aa(lp483
I0
aa(lp484
I2
aa(lp485
I4
aa(lp486
I3
aa(lp487
I1
aa(lp488
I0
aI1
aI2
aI3
aI4
aI5
aI6
aI7
aI8
aI9
aI10
aI11
aI12
aI13
aI14
aI15
aI16
aI17
aa(lp489
I2
aa(lp490
I4
aa(lp491
I16
aasg95
(lp492
S"I've been looking for something like this for years to chronicle my motorcycle trips"
p493
aS'I was loathe to give up saddlebag space to a full size laptop and worried that the heat dust and vibration of motorcycle travel would kill a laptop with a conventional hard disk drive'
p494
aS'So I started out with travel journals but I had to wait until I got home to blog my trip stories'
p495
aS'Then five years ago I tried blogging from the road with a Palm Treo 300'
p496
aS'It was barely adequate'
p497
aS'I stepped up to a Treo 600 and then the 700p but even with the accessory fold out keyboards it was still a chore to write blog entries and manage my e mail'
p498
aS"And while the cameras have improved they're still pretty bad"
p499
aS"I miss the 3G connectivity with the Mini 9 but Wifi hotspots are becoming more plentiful and it's getting easier to find them especially if you have the AT and T deal with Starbucks or McDonald's"
p500
aS'The SSD solid state drive seems perfect for motorcycle travel since it has no moving parts and is therefore less vulnerable to damage from vibration'
p501
aS"The 1GB of RAM and 8GB of SSD capacity are plenty assuming you don't junk the Mini 9 up with lots of software"
p502
aS"And there isn't any reason to do that considering that you can do all of your email word processing spreadsheets calendars and other office type functions up in the cloud with Google Apps"
p503
aS"I found the Internet Explorer browser's menu bars took up too much screen real estate so I installed Google's streamlined Chrome browser that lets me see more of the web pages at a glance"
p504
aS'I also avoid loading up the SSD by using an 8GB SanDisk thumb drive as a D drive'
p505
aS"I'm not much for touchpads the Mini 9's touchpad works fine I'm just not a touchpad guy so I use a wireless optical mouse"
p506
aS'The built in webcam is surprisingly good'
p507
aS'I have yet to use it for a live conversation but it shoots quite acceptable still photos'
p508
aS'The SD card reader is perfect for importing images from a higher quality digital camera'
p509
aS'The smaller keyboard takes a little getting used to'
p510
aS"The apostrophe and quote marks and dash underscore are not where my fingers expected to find them but it doesn't take long to make the synaptic adjustment"
p511
aS'The Mini 9 is intelligently designed when it comes to upgrades'
p512
aS'You can access its guts by removing two screws and a cover plate on the underside'
p513
aS'As I said it comes with 1GB of RAM'
p514
aS' You can double that for about 30 and the conversion takes about 5 minutes'
p515
aS'Computer development being what it is there are sure to be subsequent generations of netbooks with more speed power and versatility'
p516
aS'But for now I think the Dell Inspiron Mini 9 is one of the best buys out there'
p517
asg131
I18
sg132
I27
sba(ireviewModules
Review
p518
(dp519
g3
(lp520
(lp521
I0
aI0
aI0
aI0
aF1.8830261160947785
aI0
aI0
aF2.0512779751766956
aI0
aI0
aI0
aF1.7975412573087821
aF87.81974322459563
aI0
aI0
aI0
aF15.001395236514867
aF1.6626906930110525
aI0
aI0
aI0
aI0
aF3.3492784104921425
aI0
aI0
aF3.2596865660716263
aI0
aI0
aI0
aI0
aF90.57133893182224
aI0
aI0
aI0
aI0
aF9.386651944225058
aF0.01814766399070933
aI18
aI18
aa(lp522
I0
aI0
aI0
aI0
aI0
aI0
aI0
aI0
aI0
aI0
aI0
aF1.9342549807109226
aF50.91559485404642
aF2.0098800396089413
aI0
aI0
aF68.43759696650967
aI0
aI0
aI0
aI0
aI0
aF2.6884893352443857
aI0
aI0
aF2.6294623315927974
aI0
aI0
aI0
aI0
aF245.92635908439698
aI0
aI0
aI0
aI0
aF6.2472308847870845
aF0.40368118779957496
aI18
aI18
aa(lp523
I0
aI0
aI0
aI0
aI0
aI0
aF2.2859434566278947
aI0
aI0
aI0
aI0
aF1.7975412507700703
aF17.451655527906077
aF1.8660430407499682
aI0
aI0
aF110.20168003180146
aI0
aI0
aI0
aI0
aI0
aF1.8820854762217973
aI0
aI0
aF2.0509560989255236
aI0
aI0
aI0
aF1.797541257313755
aF87.8197441063092
aI0
aI0
aI0
aF14.973699242269472
aF1.6668601418839857
aF0.6799085879426037
aI18
aI18
aa(lp524
I0
aI0
aF2.6106414477144724
aI0
aF4.907547561610923
aI0
aF15.665684062405168
aI0
aI0
aI0
aI0
aI0
aF17.633411562863593
aF3.2277843159888064
aI0
aI0
aI0
aI0
aI0
aI0
aI0
aI0
aI0
aI0
aI0
aI0
aI0
aI0
aI0
aF1.9342549807112213
aF50.915184493973626
aF2.009874024266145
aI0
aI0
aF68.43835345227347
aI0
aF0.5665920605203567
aI18
aI18
aa(lp525
F1.1175190687418637
aF1.1175190687418637
aF1.1175190687418637
aF1.1175190687418637
aF8.308209313484516
aF1.1175190687418637
aF448.0827777642815
aF1.1175190889147826
aF1.117519080645016
aF1.1175190687418637
aF1.1175190687418637
aF1.1175190687418637
aF1.1175191433606089
aF1.117519071628896
aF1.1175190687418637
aF1.1175190779749047
aF1.1175190920176068
aF1.1175190777120314
aI0
aI0
aI0
aI0
aI0
aI0
aF2.2854104872562164
aI0
aI0
aI0
aI0
aF1.797541250771497
aF17.452259309027216
aF1.8660366555640608
aI0
aI0
aF110.22394334328287
aI0
aF0.97660204863606
aI18
aI18
aasg39
S'I wanted windows 7 on my new computer but most companys only use the newest operating system which is windows 8.  I am use to windows 7 and like it allot.  The Lenovo Thinkpad is a very good grade business computer and works well with windows 7.  The computer came with an anytime upgrade to Windows 8 if desired, nice touch.In short, the computer is excellent and does what I need it to do with my business.'
p526
sg41
(lp527
I0
aI0
aI0
aI0
aI0
asg43
g44
(g45
(I0
tp528
g47
tp529
Rp530
(I1
(I5
tp531
g54
I00
S'\x00\x00\x00\x00\x00\x00\x00\x00\x00\x00\x00\x00\x00\x00\x00\x00\x00\x00\x00\x00\x00\x00\x00\x00\x00\x00\x00\x00\x00\x00\x00\x00\x00\x00\x00\x00\x00\x00\x00\x00'
p532
tp533
bsg59
(lp534
(lp535
I12
aa(lp536
I12
aa(lp537
I16
aa(lp538
I12
aa(lp539
I6
aasg95
(lp540
S'I wanted windows 7 on my new computer but most companys only use the newest operating system which is windows 8'
p541
aS'I am use to windows 7 and like it allot'
p542
aS'The Lenovo Thinkpad is a very good grade business computer and works well with windows 7'
p543
aS'The computer came with an anytime upgrade to Windows 8 if desired nice touch'
p544
aS'In short the computer is excellent and does what I need it to do with my business'
p545
asg131
I18
sg132
I29
sba.